
ctarget:     file format elf64-x86-64


Disassembly of section .init:

0000000000400c60 <_init>:
  400c60:	48 83 ec 08          	sub    $0x8,%rsp
  400c64:	48 8b 05 8d 43 20 00 	mov    0x20438d(%rip),%rax        # 604ff8 <_DYNAMIC+0x1d0>
  400c6b:	48 85 c0             	test   %rax,%rax
  400c6e:	74 05                	je     400c75 <_init+0x15>
  400c70:	e8 2b 01 00 00       	callq  400da0 <__gmon_start__@plt>
  400c75:	48 83 c4 08          	add    $0x8,%rsp
  400c79:	c3                   	retq   

Disassembly of section .plt:

0000000000400c80 <strcasecmp@plt-0x10>:
  400c80:	ff 35 82 43 20 00    	pushq  0x204382(%rip)        # 605008 <_GLOBAL_OFFSET_TABLE_+0x8>
  400c86:	ff 25 84 43 20 00    	jmpq   *0x204384(%rip)        # 605010 <_GLOBAL_OFFSET_TABLE_+0x10>
  400c8c:	0f 1f 40 00          	nopl   0x0(%rax)

0000000000400c90 <strcasecmp@plt>:
  400c90:	ff 25 82 43 20 00    	jmpq   *0x204382(%rip)        # 605018 <_GLOBAL_OFFSET_TABLE_+0x18>
  400c96:	68 00 00 00 00       	pushq  $0x0
  400c9b:	e9 e0 ff ff ff       	jmpq   400c80 <_init+0x20>

0000000000400ca0 <__errno_location@plt>:
  400ca0:	ff 25 7a 43 20 00    	jmpq   *0x20437a(%rip)        # 605020 <_GLOBAL_OFFSET_TABLE_+0x20>
  400ca6:	68 01 00 00 00       	pushq  $0x1
  400cab:	e9 d0 ff ff ff       	jmpq   400c80 <_init+0x20>

0000000000400cb0 <srandom@plt>:
  400cb0:	ff 25 72 43 20 00    	jmpq   *0x204372(%rip)        # 605028 <_GLOBAL_OFFSET_TABLE_+0x28>
  400cb6:	68 02 00 00 00       	pushq  $0x2
  400cbb:	e9 c0 ff ff ff       	jmpq   400c80 <_init+0x20>

0000000000400cc0 <strncmp@plt>:
  400cc0:	ff 25 6a 43 20 00    	jmpq   *0x20436a(%rip)        # 605030 <_GLOBAL_OFFSET_TABLE_+0x30>
  400cc6:	68 03 00 00 00       	pushq  $0x3
  400ccb:	e9 b0 ff ff ff       	jmpq   400c80 <_init+0x20>

0000000000400cd0 <strcpy@plt>:
  400cd0:	ff 25 62 43 20 00    	jmpq   *0x204362(%rip)        # 605038 <_GLOBAL_OFFSET_TABLE_+0x38>
  400cd6:	68 04 00 00 00       	pushq  $0x4
  400cdb:	e9 a0 ff ff ff       	jmpq   400c80 <_init+0x20>

0000000000400ce0 <puts@plt>:
  400ce0:	ff 25 5a 43 20 00    	jmpq   *0x20435a(%rip)        # 605040 <_GLOBAL_OFFSET_TABLE_+0x40>
  400ce6:	68 05 00 00 00       	pushq  $0x5
  400ceb:	e9 90 ff ff ff       	jmpq   400c80 <_init+0x20>

0000000000400cf0 <write@plt>:
  400cf0:	ff 25 52 43 20 00    	jmpq   *0x204352(%rip)        # 605048 <_GLOBAL_OFFSET_TABLE_+0x48>
  400cf6:	68 06 00 00 00       	pushq  $0x6
  400cfb:	e9 80 ff ff ff       	jmpq   400c80 <_init+0x20>

0000000000400d00 <__stack_chk_fail@plt>:
  400d00:	ff 25 4a 43 20 00    	jmpq   *0x20434a(%rip)        # 605050 <_GLOBAL_OFFSET_TABLE_+0x50>
  400d06:	68 07 00 00 00       	pushq  $0x7
  400d0b:	e9 70 ff ff ff       	jmpq   400c80 <_init+0x20>

0000000000400d10 <mmap@plt>:
  400d10:	ff 25 42 43 20 00    	jmpq   *0x204342(%rip)        # 605058 <_GLOBAL_OFFSET_TABLE_+0x58>
  400d16:	68 08 00 00 00       	pushq  $0x8
  400d1b:	e9 60 ff ff ff       	jmpq   400c80 <_init+0x20>

0000000000400d20 <memset@plt>:
  400d20:	ff 25 3a 43 20 00    	jmpq   *0x20433a(%rip)        # 605060 <_GLOBAL_OFFSET_TABLE_+0x60>
  400d26:	68 09 00 00 00       	pushq  $0x9
  400d2b:	e9 50 ff ff ff       	jmpq   400c80 <_init+0x20>

0000000000400d30 <alarm@plt>:
  400d30:	ff 25 32 43 20 00    	jmpq   *0x204332(%rip)        # 605068 <_GLOBAL_OFFSET_TABLE_+0x68>
  400d36:	68 0a 00 00 00       	pushq  $0xa
  400d3b:	e9 40 ff ff ff       	jmpq   400c80 <_init+0x20>

0000000000400d40 <close@plt>:
  400d40:	ff 25 2a 43 20 00    	jmpq   *0x20432a(%rip)        # 605070 <_GLOBAL_OFFSET_TABLE_+0x70>
  400d46:	68 0b 00 00 00       	pushq  $0xb
  400d4b:	e9 30 ff ff ff       	jmpq   400c80 <_init+0x20>

0000000000400d50 <read@plt>:
  400d50:	ff 25 22 43 20 00    	jmpq   *0x204322(%rip)        # 605078 <_GLOBAL_OFFSET_TABLE_+0x78>
  400d56:	68 0c 00 00 00       	pushq  $0xc
  400d5b:	e9 20 ff ff ff       	jmpq   400c80 <_init+0x20>

0000000000400d60 <__libc_start_main@plt>:
  400d60:	ff 25 1a 43 20 00    	jmpq   *0x20431a(%rip)        # 605080 <_GLOBAL_OFFSET_TABLE_+0x80>
  400d66:	68 0d 00 00 00       	pushq  $0xd
  400d6b:	e9 10 ff ff ff       	jmpq   400c80 <_init+0x20>

0000000000400d70 <signal@plt>:
  400d70:	ff 25 12 43 20 00    	jmpq   *0x204312(%rip)        # 605088 <_GLOBAL_OFFSET_TABLE_+0x88>
  400d76:	68 0e 00 00 00       	pushq  $0xe
  400d7b:	e9 00 ff ff ff       	jmpq   400c80 <_init+0x20>

0000000000400d80 <gethostbyname@plt>:
  400d80:	ff 25 0a 43 20 00    	jmpq   *0x20430a(%rip)        # 605090 <_GLOBAL_OFFSET_TABLE_+0x90>
  400d86:	68 0f 00 00 00       	pushq  $0xf
  400d8b:	e9 f0 fe ff ff       	jmpq   400c80 <_init+0x20>

0000000000400d90 <__memmove_chk@plt>:
  400d90:	ff 25 02 43 20 00    	jmpq   *0x204302(%rip)        # 605098 <_GLOBAL_OFFSET_TABLE_+0x98>
  400d96:	68 10 00 00 00       	pushq  $0x10
  400d9b:	e9 e0 fe ff ff       	jmpq   400c80 <_init+0x20>

0000000000400da0 <__gmon_start__@plt>:
  400da0:	ff 25 fa 42 20 00    	jmpq   *0x2042fa(%rip)        # 6050a0 <_GLOBAL_OFFSET_TABLE_+0xa0>
  400da6:	68 11 00 00 00       	pushq  $0x11
  400dab:	e9 d0 fe ff ff       	jmpq   400c80 <_init+0x20>

0000000000400db0 <strtol@plt>:
  400db0:	ff 25 f2 42 20 00    	jmpq   *0x2042f2(%rip)        # 6050a8 <_GLOBAL_OFFSET_TABLE_+0xa8>
  400db6:	68 12 00 00 00       	pushq  $0x12
  400dbb:	e9 c0 fe ff ff       	jmpq   400c80 <_init+0x20>

0000000000400dc0 <memcpy@plt>:
  400dc0:	ff 25 ea 42 20 00    	jmpq   *0x2042ea(%rip)        # 6050b0 <_GLOBAL_OFFSET_TABLE_+0xb0>
  400dc6:	68 13 00 00 00       	pushq  $0x13
  400dcb:	e9 b0 fe ff ff       	jmpq   400c80 <_init+0x20>

0000000000400dd0 <time@plt>:
  400dd0:	ff 25 e2 42 20 00    	jmpq   *0x2042e2(%rip)        # 6050b8 <_GLOBAL_OFFSET_TABLE_+0xb8>
  400dd6:	68 14 00 00 00       	pushq  $0x14
  400ddb:	e9 a0 fe ff ff       	jmpq   400c80 <_init+0x20>

0000000000400de0 <random@plt>:
  400de0:	ff 25 da 42 20 00    	jmpq   *0x2042da(%rip)        # 6050c0 <_GLOBAL_OFFSET_TABLE_+0xc0>
  400de6:	68 15 00 00 00       	pushq  $0x15
  400deb:	e9 90 fe ff ff       	jmpq   400c80 <_init+0x20>

0000000000400df0 <_IO_getc@plt>:
  400df0:	ff 25 d2 42 20 00    	jmpq   *0x2042d2(%rip)        # 6050c8 <_GLOBAL_OFFSET_TABLE_+0xc8>
  400df6:	68 16 00 00 00       	pushq  $0x16
  400dfb:	e9 80 fe ff ff       	jmpq   400c80 <_init+0x20>

0000000000400e00 <__isoc99_sscanf@plt>:
  400e00:	ff 25 ca 42 20 00    	jmpq   *0x2042ca(%rip)        # 6050d0 <_GLOBAL_OFFSET_TABLE_+0xd0>
  400e06:	68 17 00 00 00       	pushq  $0x17
  400e0b:	e9 70 fe ff ff       	jmpq   400c80 <_init+0x20>

0000000000400e10 <munmap@plt>:
  400e10:	ff 25 c2 42 20 00    	jmpq   *0x2042c2(%rip)        # 6050d8 <_GLOBAL_OFFSET_TABLE_+0xd8>
  400e16:	68 18 00 00 00       	pushq  $0x18
  400e1b:	e9 60 fe ff ff       	jmpq   400c80 <_init+0x20>

0000000000400e20 <__printf_chk@plt>:
  400e20:	ff 25 ba 42 20 00    	jmpq   *0x2042ba(%rip)        # 6050e0 <_GLOBAL_OFFSET_TABLE_+0xe0>
  400e26:	68 19 00 00 00       	pushq  $0x19
  400e2b:	e9 50 fe ff ff       	jmpq   400c80 <_init+0x20>

0000000000400e30 <fopen@plt>:
  400e30:	ff 25 b2 42 20 00    	jmpq   *0x2042b2(%rip)        # 6050e8 <_GLOBAL_OFFSET_TABLE_+0xe8>
  400e36:	68 1a 00 00 00       	pushq  $0x1a
  400e3b:	e9 40 fe ff ff       	jmpq   400c80 <_init+0x20>

0000000000400e40 <getopt@plt>:
  400e40:	ff 25 aa 42 20 00    	jmpq   *0x2042aa(%rip)        # 6050f0 <_GLOBAL_OFFSET_TABLE_+0xf0>
  400e46:	68 1b 00 00 00       	pushq  $0x1b
  400e4b:	e9 30 fe ff ff       	jmpq   400c80 <_init+0x20>

0000000000400e50 <strtoul@plt>:
  400e50:	ff 25 a2 42 20 00    	jmpq   *0x2042a2(%rip)        # 6050f8 <_GLOBAL_OFFSET_TABLE_+0xf8>
  400e56:	68 1c 00 00 00       	pushq  $0x1c
  400e5b:	e9 20 fe ff ff       	jmpq   400c80 <_init+0x20>

0000000000400e60 <gethostname@plt>:
  400e60:	ff 25 9a 42 20 00    	jmpq   *0x20429a(%rip)        # 605100 <_GLOBAL_OFFSET_TABLE_+0x100>
  400e66:	68 1d 00 00 00       	pushq  $0x1d
  400e6b:	e9 10 fe ff ff       	jmpq   400c80 <_init+0x20>

0000000000400e70 <exit@plt>:
  400e70:	ff 25 92 42 20 00    	jmpq   *0x204292(%rip)        # 605108 <_GLOBAL_OFFSET_TABLE_+0x108>
  400e76:	68 1e 00 00 00       	pushq  $0x1e
  400e7b:	e9 00 fe ff ff       	jmpq   400c80 <_init+0x20>

0000000000400e80 <connect@plt>:
  400e80:	ff 25 8a 42 20 00    	jmpq   *0x20428a(%rip)        # 605110 <_GLOBAL_OFFSET_TABLE_+0x110>
  400e86:	68 1f 00 00 00       	pushq  $0x1f
  400e8b:	e9 f0 fd ff ff       	jmpq   400c80 <_init+0x20>

0000000000400e90 <__fprintf_chk@plt>:
  400e90:	ff 25 82 42 20 00    	jmpq   *0x204282(%rip)        # 605118 <_GLOBAL_OFFSET_TABLE_+0x118>
  400e96:	68 20 00 00 00       	pushq  $0x20
  400e9b:	e9 e0 fd ff ff       	jmpq   400c80 <_init+0x20>

0000000000400ea0 <__sprintf_chk@plt>:
  400ea0:	ff 25 7a 42 20 00    	jmpq   *0x20427a(%rip)        # 605120 <_GLOBAL_OFFSET_TABLE_+0x120>
  400ea6:	68 21 00 00 00       	pushq  $0x21
  400eab:	e9 d0 fd ff ff       	jmpq   400c80 <_init+0x20>

0000000000400eb0 <socket@plt>:
  400eb0:	ff 25 72 42 20 00    	jmpq   *0x204272(%rip)        # 605128 <_GLOBAL_OFFSET_TABLE_+0x128>
  400eb6:	68 22 00 00 00       	pushq  $0x22
  400ebb:	e9 c0 fd ff ff       	jmpq   400c80 <_init+0x20>

Disassembly of section .text:

0000000000400ec0 <_start>:
  400ec0:	31 ed                	xor    %ebp,%ebp
  400ec2:	49 89 d1             	mov    %rdx,%r9
  400ec5:	5e                   	pop    %rsi
  400ec6:	48 89 e2             	mov    %rsp,%rdx
  400ec9:	48 83 e4 f0          	and    $0xfffffffffffffff0,%rsp
  400ecd:	50                   	push   %rax
  400ece:	54                   	push   %rsp
  400ecf:	49 c7 c0 d0 2e 40 00 	mov    $0x402ed0,%r8
  400ed6:	48 c7 c1 60 2e 40 00 	mov    $0x402e60,%rcx
  400edd:	48 c7 c7 c5 11 40 00 	mov    $0x4011c5,%rdi
  400ee4:	e8 77 fe ff ff       	callq  400d60 <__libc_start_main@plt>
  400ee9:	f4                   	hlt    
  400eea:	66 0f 1f 44 00 00    	nopw   0x0(%rax,%rax,1)

0000000000400ef0 <deregister_tm_clones>:
  400ef0:	b8 b7 54 60 00       	mov    $0x6054b7,%eax
  400ef5:	55                   	push   %rbp
  400ef6:	48 2d b0 54 60 00    	sub    $0x6054b0,%rax
  400efc:	48 83 f8 0e          	cmp    $0xe,%rax
  400f00:	48 89 e5             	mov    %rsp,%rbp
  400f03:	76 1b                	jbe    400f20 <deregister_tm_clones+0x30>
  400f05:	b8 00 00 00 00       	mov    $0x0,%eax
  400f0a:	48 85 c0             	test   %rax,%rax
  400f0d:	74 11                	je     400f20 <deregister_tm_clones+0x30>
  400f0f:	5d                   	pop    %rbp
  400f10:	bf b0 54 60 00       	mov    $0x6054b0,%edi
  400f15:	ff e0                	jmpq   *%rax
  400f17:	66 0f 1f 84 00 00 00 	nopw   0x0(%rax,%rax,1)
  400f1e:	00 00 
  400f20:	5d                   	pop    %rbp
  400f21:	c3                   	retq   
  400f22:	66 66 66 66 66 2e 0f 	data32 data32 data32 data32 nopw %cs:0x0(%rax,%rax,1)
  400f29:	1f 84 00 00 00 00 00 

0000000000400f30 <register_tm_clones>:
  400f30:	be b0 54 60 00       	mov    $0x6054b0,%esi
  400f35:	55                   	push   %rbp
  400f36:	48 81 ee b0 54 60 00 	sub    $0x6054b0,%rsi
  400f3d:	48 c1 fe 03          	sar    $0x3,%rsi
  400f41:	48 89 e5             	mov    %rsp,%rbp
  400f44:	48 89 f0             	mov    %rsi,%rax
  400f47:	48 c1 e8 3f          	shr    $0x3f,%rax
  400f4b:	48 01 c6             	add    %rax,%rsi
  400f4e:	48 d1 fe             	sar    %rsi
  400f51:	74 15                	je     400f68 <register_tm_clones+0x38>
  400f53:	b8 00 00 00 00       	mov    $0x0,%eax
  400f58:	48 85 c0             	test   %rax,%rax
  400f5b:	74 0b                	je     400f68 <register_tm_clones+0x38>
  400f5d:	5d                   	pop    %rbp
  400f5e:	bf b0 54 60 00       	mov    $0x6054b0,%edi
  400f63:	ff e0                	jmpq   *%rax
  400f65:	0f 1f 00             	nopl   (%rax)
  400f68:	5d                   	pop    %rbp
  400f69:	c3                   	retq   
  400f6a:	66 0f 1f 44 00 00    	nopw   0x0(%rax,%rax,1)

0000000000400f70 <__do_global_dtors_aux>:
  400f70:	80 3d 79 45 20 00 00 	cmpb   $0x0,0x204579(%rip)        # 6054f0 <completed.7553>
  400f77:	75 11                	jne    400f8a <__do_global_dtors_aux+0x1a>
  400f79:	55                   	push   %rbp
  400f7a:	48 89 e5             	mov    %rsp,%rbp
  400f7d:	e8 6e ff ff ff       	callq  400ef0 <deregister_tm_clones>
  400f82:	5d                   	pop    %rbp
  400f83:	c6 05 66 45 20 00 01 	movb   $0x1,0x204566(%rip)        # 6054f0 <completed.7553>
  400f8a:	f3 c3                	repz retq 
  400f8c:	0f 1f 40 00          	nopl   0x0(%rax)

0000000000400f90 <frame_dummy>:
  400f90:	bf 20 4e 60 00       	mov    $0x604e20,%edi
  400f95:	48 83 3f 00          	cmpq   $0x0,(%rdi)
  400f99:	75 05                	jne    400fa0 <frame_dummy+0x10>
  400f9b:	eb 93                	jmp    400f30 <register_tm_clones>
  400f9d:	0f 1f 00             	nopl   (%rax)
  400fa0:	b8 00 00 00 00       	mov    $0x0,%eax
  400fa5:	48 85 c0             	test   %rax,%rax
  400fa8:	74 f1                	je     400f9b <frame_dummy+0xb>
  400faa:	55                   	push   %rbp
  400fab:	48 89 e5             	mov    %rsp,%rbp
  400fae:	ff d0                	callq  *%rax
  400fb0:	5d                   	pop    %rbp
  400fb1:	e9 7a ff ff ff       	jmpq   400f30 <register_tm_clones>

0000000000400fb6 <usage>:
  400fb6:	48 83 ec 08          	sub    $0x8,%rsp
  400fba:	48 89 fa             	mov    %rdi,%rdx
  400fbd:	83 3d 64 45 20 00 00 	cmpl   $0x0,0x204564(%rip)        # 605528 <is_checker>
  400fc4:	74 3e                	je     401004 <usage+0x4e>
  400fc6:	be e8 2e 40 00       	mov    $0x402ee8,%esi
  400fcb:	bf 01 00 00 00       	mov    $0x1,%edi
  400fd0:	b8 00 00 00 00       	mov    $0x0,%eax
  400fd5:	e8 46 fe ff ff       	callq  400e20 <__printf_chk@plt>
  400fda:	bf 20 2f 40 00       	mov    $0x402f20,%edi
  400fdf:	e8 fc fc ff ff       	callq  400ce0 <puts@plt>
  400fe4:	bf 98 30 40 00       	mov    $0x403098,%edi
  400fe9:	e8 f2 fc ff ff       	callq  400ce0 <puts@plt>
  400fee:	bf 48 2f 40 00       	mov    $0x402f48,%edi
  400ff3:	e8 e8 fc ff ff       	callq  400ce0 <puts@plt>
  400ff8:	bf b2 30 40 00       	mov    $0x4030b2,%edi
  400ffd:	e8 de fc ff ff       	callq  400ce0 <puts@plt>
  401002:	eb 32                	jmp    401036 <usage+0x80>
  401004:	be ce 30 40 00       	mov    $0x4030ce,%esi
  401009:	bf 01 00 00 00       	mov    $0x1,%edi
  40100e:	b8 00 00 00 00       	mov    $0x0,%eax
  401013:	e8 08 fe ff ff       	callq  400e20 <__printf_chk@plt>
  401018:	bf 70 2f 40 00       	mov    $0x402f70,%edi
  40101d:	e8 be fc ff ff       	callq  400ce0 <puts@plt>
  401022:	bf 98 2f 40 00       	mov    $0x402f98,%edi
  401027:	e8 b4 fc ff ff       	callq  400ce0 <puts@plt>
  40102c:	bf ec 30 40 00       	mov    $0x4030ec,%edi
  401031:	e8 aa fc ff ff       	callq  400ce0 <puts@plt>
  401036:	bf 00 00 00 00       	mov    $0x0,%edi
  40103b:	e8 30 fe ff ff       	callq  400e70 <exit@plt>

0000000000401040 <initialize_target>:
  401040:	55                   	push   %rbp
  401041:	53                   	push   %rbx
  401042:	48 81 ec 18 21 00 00 	sub    $0x2118,%rsp
  401049:	89 f5                	mov    %esi,%ebp
  40104b:	64 48 8b 04 25 28 00 	mov    %fs:0x28,%rax
  401052:	00 00 
  401054:	48 89 84 24 08 21 00 	mov    %rax,0x2108(%rsp)
  40105b:	00 
  40105c:	31 c0                	xor    %eax,%eax
  40105e:	89 3d b4 44 20 00    	mov    %edi,0x2044b4(%rip)        # 605518 <check_level>
  401064:	8b 3d fe 40 20 00    	mov    0x2040fe(%rip),%edi        # 605168 <target_id>
  40106a:	e8 cf 1d 00 00       	callq  402e3e <gencookie>
  40106f:	89 05 af 44 20 00    	mov    %eax,0x2044af(%rip)        # 605524 <cookie>
  401075:	89 c7                	mov    %eax,%edi
  401077:	e8 c2 1d 00 00       	callq  402e3e <gencookie>
  40107c:	89 05 9e 44 20 00    	mov    %eax,0x20449e(%rip)        # 605520 <authkey>
  401082:	8b 05 e0 40 20 00    	mov    0x2040e0(%rip),%eax        # 605168 <target_id>
  401088:	8d 78 01             	lea    0x1(%rax),%edi
  40108b:	e8 20 fc ff ff       	callq  400cb0 <srandom@plt>
  401090:	e8 4b fd ff ff       	callq  400de0 <random@plt>
  401095:	89 c7                	mov    %eax,%edi
  401097:	e8 03 03 00 00       	callq  40139f <scramble>
  40109c:	89 c3                	mov    %eax,%ebx
  40109e:	85 ed                	test   %ebp,%ebp
  4010a0:	74 18                	je     4010ba <initialize_target+0x7a>
  4010a2:	bf 00 00 00 00       	mov    $0x0,%edi
  4010a7:	e8 24 fd ff ff       	callq  400dd0 <time@plt>
  4010ac:	89 c7                	mov    %eax,%edi
  4010ae:	e8 fd fb ff ff       	callq  400cb0 <srandom@plt>
  4010b3:	e8 28 fd ff ff       	callq  400de0 <random@plt>
  4010b8:	eb 05                	jmp    4010bf <initialize_target+0x7f>
  4010ba:	b8 00 00 00 00       	mov    $0x0,%eax
  4010bf:	01 c3                	add    %eax,%ebx
  4010c1:	0f b7 db             	movzwl %bx,%ebx
  4010c4:	8d 04 dd 00 01 00 00 	lea    0x100(,%rbx,8),%eax
  4010cb:	89 c0                	mov    %eax,%eax
  4010cd:	48 89 05 cc 43 20 00 	mov    %rax,0x2043cc(%rip)        # 6054a0 <buf_offset>
  4010d4:	c6 05 6d 50 20 00 63 	movb   $0x63,0x20506d(%rip)        # 606148 <target_prefix>
  4010db:	83 3d c6 43 20 00 00 	cmpl   $0x0,0x2043c6(%rip)        # 6054a8 <notify>
  4010e2:	0f 84 bb 00 00 00    	je     4011a3 <initialize_target+0x163>
  4010e8:	83 3d 39 44 20 00 00 	cmpl   $0x0,0x204439(%rip)        # 605528 <is_checker>
  4010ef:	0f 85 ae 00 00 00    	jne    4011a3 <initialize_target+0x163>
  4010f5:	be 00 01 00 00       	mov    $0x100,%esi
  4010fa:	48 89 e7             	mov    %rsp,%rdi
  4010fd:	e8 5e fd ff ff       	callq  400e60 <gethostname@plt>
  401102:	85 c0                	test   %eax,%eax
  401104:	74 25                	je     40112b <initialize_target+0xeb>
  401106:	bf c8 2f 40 00       	mov    $0x402fc8,%edi
  40110b:	e8 d0 fb ff ff       	callq  400ce0 <puts@plt>
  401110:	bf 08 00 00 00       	mov    $0x8,%edi
  401115:	e8 56 fd ff ff       	callq  400e70 <exit@plt>
  40111a:	48 89 e6             	mov    %rsp,%rsi
  40111d:	e8 6e fb ff ff       	callq  400c90 <strcasecmp@plt>
  401122:	85 c0                	test   %eax,%eax
  401124:	74 21                	je     401147 <initialize_target+0x107>
  401126:	83 c3 01             	add    $0x1,%ebx
  401129:	eb 05                	jmp    401130 <initialize_target+0xf0>
  40112b:	bb 00 00 00 00       	mov    $0x0,%ebx
  401130:	48 63 c3             	movslq %ebx,%rax
  401133:	48 8b 3c c5 80 51 60 	mov    0x605180(,%rax,8),%rdi
  40113a:	00 
  40113b:	48 85 ff             	test   %rdi,%rdi
  40113e:	75 da                	jne    40111a <initialize_target+0xda>
  401140:	b8 00 00 00 00       	mov    $0x0,%eax
  401145:	eb 05                	jmp    40114c <initialize_target+0x10c>
  401147:	b8 01 00 00 00       	mov    $0x1,%eax
  40114c:	85 c0                	test   %eax,%eax
  40114e:	75 1c                	jne    40116c <initialize_target+0x12c>
  401150:	48 89 e2             	mov    %rsp,%rdx
  401153:	be 00 30 40 00       	mov    $0x403000,%esi
  401158:	bf 01 00 00 00       	mov    $0x1,%edi
  40115d:	e8 be fc ff ff       	callq  400e20 <__printf_chk@plt>
  401162:	bf 08 00 00 00       	mov    $0x8,%edi
  401167:	e8 04 fd ff ff       	callq  400e70 <exit@plt>
  40116c:	48 8d bc 24 00 01 00 	lea    0x100(%rsp),%rdi
  401173:	00 
  401174:	e8 2f 1a 00 00       	callq  402ba8 <init_driver>
  401179:	85 c0                	test   %eax,%eax
  40117b:	79 26                	jns    4011a3 <initialize_target+0x163>
  40117d:	48 8d 94 24 00 01 00 	lea    0x100(%rsp),%rdx
  401184:	00 
  401185:	be 40 30 40 00       	mov    $0x403040,%esi
  40118a:	bf 01 00 00 00       	mov    $0x1,%edi
  40118f:	b8 00 00 00 00       	mov    $0x0,%eax
  401194:	e8 87 fc ff ff       	callq  400e20 <__printf_chk@plt>
  401199:	bf 08 00 00 00       	mov    $0x8,%edi
  40119e:	e8 cd fc ff ff       	callq  400e70 <exit@plt>
  4011a3:	48 8b 84 24 08 21 00 	mov    0x2108(%rsp),%rax
  4011aa:	00 
  4011ab:	64 48 33 04 25 28 00 	xor    %fs:0x28,%rax
  4011b2:	00 00 
  4011b4:	74 05                	je     4011bb <initialize_target+0x17b>
  4011b6:	e8 45 fb ff ff       	callq  400d00 <__stack_chk_fail@plt>
  4011bb:	48 81 c4 18 21 00 00 	add    $0x2118,%rsp
  4011c2:	5b                   	pop    %rbx
  4011c3:	5d                   	pop    %rbp
  4011c4:	c3                   	retq   

00000000004011c5 <main>:
  4011c5:	41 56                	push   %r14
  4011c7:	41 55                	push   %r13
  4011c9:	41 54                	push   %r12
  4011cb:	55                   	push   %rbp
  4011cc:	53                   	push   %rbx
  4011cd:	41 89 fc             	mov    %edi,%r12d
  4011d0:	48 89 f3             	mov    %rsi,%rbx
  4011d3:	be 17 1f 40 00       	mov    $0x401f17,%esi
  4011d8:	bf 0b 00 00 00       	mov    $0xb,%edi
  4011dd:	e8 8e fb ff ff       	callq  400d70 <signal@plt>
  4011e2:	be c9 1e 40 00       	mov    $0x401ec9,%esi
  4011e7:	bf 07 00 00 00       	mov    $0x7,%edi
  4011ec:	e8 7f fb ff ff       	callq  400d70 <signal@plt>
  4011f1:	be 65 1f 40 00       	mov    $0x401f65,%esi
  4011f6:	bf 04 00 00 00       	mov    $0x4,%edi
  4011fb:	e8 70 fb ff ff       	callq  400d70 <signal@plt>
  401200:	83 3d 21 43 20 00 00 	cmpl   $0x0,0x204321(%rip)        # 605528 <is_checker>
  401207:	74 20                	je     401229 <main+0x64>
  401209:	be b3 1f 40 00       	mov    $0x401fb3,%esi
  40120e:	bf 0e 00 00 00       	mov    $0xe,%edi
  401213:	e8 58 fb ff ff       	callq  400d70 <signal@plt>
  401218:	bf 05 00 00 00       	mov    $0x5,%edi
  40121d:	e8 0e fb ff ff       	callq  400d30 <alarm@plt>
  401222:	bd 0a 31 40 00       	mov    $0x40310a,%ebp
  401227:	eb 05                	jmp    40122e <main+0x69>
  401229:	bd 05 31 40 00       	mov    $0x403105,%ebp
  40122e:	48 8b 05 8b 42 20 00 	mov    0x20428b(%rip),%rax        # 6054c0 <stdin@@GLIBC_2.2.5>
  401235:	48 89 05 d4 42 20 00 	mov    %rax,0x2042d4(%rip)        # 605510 <infile>
  40123c:	41 bd 00 00 00 00    	mov    $0x0,%r13d
  401242:	41 be 00 00 00 00    	mov    $0x0,%r14d
  401248:	e9 c6 00 00 00       	jmpq   401313 <main+0x14e>
  40124d:	83 e8 61             	sub    $0x61,%eax
  401250:	3c 10                	cmp    $0x10,%al
  401252:	0f 87 9c 00 00 00    	ja     4012f4 <main+0x12f>
  401258:	0f b6 c0             	movzbl %al,%eax
  40125b:	ff 24 c5 50 31 40 00 	jmpq   *0x403150(,%rax,8)
  401262:	48 8b 3b             	mov    (%rbx),%rdi
  401265:	e8 4c fd ff ff       	callq  400fb6 <usage>
  40126a:	be d5 33 40 00       	mov    $0x4033d5,%esi
  40126f:	48 8b 3d 6a 42 20 00 	mov    0x20426a(%rip),%rdi        # 6054e0 <optarg@@GLIBC_2.2.5>
  401276:	e8 b5 fb ff ff       	callq  400e30 <fopen@plt>
  40127b:	48 89 05 8e 42 20 00 	mov    %rax,0x20428e(%rip)        # 605510 <infile>
  401282:	48 85 c0             	test   %rax,%rax
  401285:	0f 85 88 00 00 00    	jne    401313 <main+0x14e>
  40128b:	48 8b 0d 4e 42 20 00 	mov    0x20424e(%rip),%rcx        # 6054e0 <optarg@@GLIBC_2.2.5>
  401292:	ba 12 31 40 00       	mov    $0x403112,%edx
  401297:	be 01 00 00 00       	mov    $0x1,%esi
  40129c:	48 8b 3d 45 42 20 00 	mov    0x204245(%rip),%rdi        # 6054e8 <stderr@@GLIBC_2.2.5>
  4012a3:	e8 e8 fb ff ff       	callq  400e90 <__fprintf_chk@plt>
  4012a8:	b8 01 00 00 00       	mov    $0x1,%eax
  4012ad:	e9 e4 00 00 00       	jmpq   401396 <main+0x1d1>
  4012b2:	ba 10 00 00 00       	mov    $0x10,%edx
  4012b7:	be 00 00 00 00       	mov    $0x0,%esi
  4012bc:	48 8b 3d 1d 42 20 00 	mov    0x20421d(%rip),%rdi        # 6054e0 <optarg@@GLIBC_2.2.5>
  4012c3:	e8 88 fb ff ff       	callq  400e50 <strtoul@plt>
  4012c8:	41 89 c6             	mov    %eax,%r14d
  4012cb:	eb 46                	jmp    401313 <main+0x14e>
  4012cd:	ba 0a 00 00 00       	mov    $0xa,%edx
  4012d2:	be 00 00 00 00       	mov    $0x0,%esi
  4012d7:	48 8b 3d 02 42 20 00 	mov    0x204202(%rip),%rdi        # 6054e0 <optarg@@GLIBC_2.2.5>
  4012de:	e8 cd fa ff ff       	callq  400db0 <strtol@plt>
  4012e3:	41 89 c5             	mov    %eax,%r13d
  4012e6:	eb 2b                	jmp    401313 <main+0x14e>
  4012e8:	c7 05 b6 41 20 00 00 	movl   $0x0,0x2041b6(%rip)        # 6054a8 <notify>
  4012ef:	00 00 00 
  4012f2:	eb 1f                	jmp    401313 <main+0x14e>
  4012f4:	0f be d2             	movsbl %dl,%edx
  4012f7:	be 2f 31 40 00       	mov    $0x40312f,%esi
  4012fc:	bf 01 00 00 00       	mov    $0x1,%edi
  401301:	b8 00 00 00 00       	mov    $0x0,%eax
  401306:	e8 15 fb ff ff       	callq  400e20 <__printf_chk@plt>
  40130b:	48 8b 3b             	mov    (%rbx),%rdi
  40130e:	e8 a3 fc ff ff       	callq  400fb6 <usage>
  401313:	48 89 ea             	mov    %rbp,%rdx
  401316:	48 89 de             	mov    %rbx,%rsi
  401319:	44 89 e7             	mov    %r12d,%edi
  40131c:	e8 1f fb ff ff       	callq  400e40 <getopt@plt>
  401321:	89 c2                	mov    %eax,%edx
  401323:	3c ff                	cmp    $0xff,%al
  401325:	0f 85 22 ff ff ff    	jne    40124d <main+0x88>
  40132b:	be 00 00 00 00       	mov    $0x0,%esi
  401330:	44 89 ef             	mov    %r13d,%edi
  401333:	e8 08 fd ff ff       	callq  401040 <initialize_target>
  401338:	83 3d e9 41 20 00 00 	cmpl   $0x0,0x2041e9(%rip)        # 605528 <is_checker>
  40133f:	74 2a                	je     40136b <main+0x1a6>
  401341:	44 3b 35 d8 41 20 00 	cmp    0x2041d8(%rip),%r14d        # 605520 <authkey>
  401348:	74 21                	je     40136b <main+0x1a6>
  40134a:	44 89 f2             	mov    %r14d,%edx
  40134d:	be 68 30 40 00       	mov    $0x403068,%esi
  401352:	bf 01 00 00 00       	mov    $0x1,%edi
  401357:	b8 00 00 00 00       	mov    $0x0,%eax
  40135c:	e8 bf fa ff ff       	callq  400e20 <__printf_chk@plt>
  401361:	b8 00 00 00 00       	mov    $0x0,%eax
  401366:	e8 fa 07 00 00       	callq  401b65 <check_fail>
  40136b:	8b 15 b3 41 20 00    	mov    0x2041b3(%rip),%edx        # 605524 <cookie>
  401371:	be 42 31 40 00       	mov    $0x403142,%esi
  401376:	bf 01 00 00 00       	mov    $0x1,%edi
  40137b:	b8 00 00 00 00       	mov    $0x0,%eax
  401380:	e8 9b fa ff ff       	callq  400e20 <__printf_chk@plt>
  401385:	48 8b 3d 14 41 20 00 	mov    0x204114(%rip),%rdi        # 6054a0 <buf_offset>
  40138c:	e8 22 0d 00 00       	callq  4020b3 <stable_launch>
  401391:	b8 00 00 00 00       	mov    $0x0,%eax
  401396:	5b                   	pop    %rbx
  401397:	5d                   	pop    %rbp
  401398:	41 5c                	pop    %r12
  40139a:	41 5d                	pop    %r13
  40139c:	41 5e                	pop    %r14
  40139e:	c3                   	retq   

000000000040139f <scramble>:
  40139f:	b8 00 00 00 00       	mov    $0x0,%eax
  4013a4:	eb 11                	jmp    4013b7 <scramble+0x18>
  4013a6:	69 d0 fd ed 00 00    	imul   $0xedfd,%eax,%edx
  4013ac:	01 fa                	add    %edi,%edx
  4013ae:	89 c1                	mov    %eax,%ecx
  4013b0:	89 54 8c c8          	mov    %edx,-0x38(%rsp,%rcx,4)
  4013b4:	83 c0 01             	add    $0x1,%eax
  4013b7:	83 f8 09             	cmp    $0x9,%eax
  4013ba:	76 ea                	jbe    4013a6 <scramble+0x7>
  4013bc:	8b 44 24 d0          	mov    -0x30(%rsp),%eax
  4013c0:	69 c0 89 aa 00 00    	imul   $0xaa89,%eax,%eax
  4013c6:	89 44 24 d0          	mov    %eax,-0x30(%rsp)
  4013ca:	8b 44 24 d4          	mov    -0x2c(%rsp),%eax
  4013ce:	69 c0 c3 bf 00 00    	imul   $0xbfc3,%eax,%eax
  4013d4:	89 44 24 d4          	mov    %eax,-0x2c(%rsp)
  4013d8:	8b 44 24 d4          	mov    -0x2c(%rsp),%eax
  4013dc:	69 c0 77 1b 00 00    	imul   $0x1b77,%eax,%eax
  4013e2:	89 44 24 d4          	mov    %eax,-0x2c(%rsp)
  4013e6:	8b 44 24 e8          	mov    -0x18(%rsp),%eax
  4013ea:	69 c0 af b2 00 00    	imul   $0xb2af,%eax,%eax
  4013f0:	89 44 24 e8          	mov    %eax,-0x18(%rsp)
  4013f4:	8b 44 24 dc          	mov    -0x24(%rsp),%eax
  4013f8:	69 c0 8d 31 00 00    	imul   $0x318d,%eax,%eax
  4013fe:	89 44 24 dc          	mov    %eax,-0x24(%rsp)
  401402:	8b 44 24 cc          	mov    -0x34(%rsp),%eax
  401406:	69 c0 4f 12 00 00    	imul   $0x124f,%eax,%eax
  40140c:	89 44 24 cc          	mov    %eax,-0x34(%rsp)
  401410:	8b 44 24 d0          	mov    -0x30(%rsp),%eax
  401414:	69 c0 24 4e 00 00    	imul   $0x4e24,%eax,%eax
  40141a:	89 44 24 d0          	mov    %eax,-0x30(%rsp)
  40141e:	8b 44 24 d8          	mov    -0x28(%rsp),%eax
  401422:	69 c0 8d 3b 00 00    	imul   $0x3b8d,%eax,%eax
  401428:	89 44 24 d8          	mov    %eax,-0x28(%rsp)
  40142c:	8b 44 24 d4          	mov    -0x2c(%rsp),%eax
  401430:	69 c0 fd 53 00 00    	imul   $0x53fd,%eax,%eax
  401436:	89 44 24 d4          	mov    %eax,-0x2c(%rsp)
  40143a:	8b 44 24 d8          	mov    -0x28(%rsp),%eax
  40143e:	69 c0 2f a9 00 00    	imul   $0xa92f,%eax,%eax
  401444:	89 44 24 d8          	mov    %eax,-0x28(%rsp)
  401448:	8b 44 24 d8          	mov    -0x28(%rsp),%eax
  40144c:	69 c0 a5 1c 00 00    	imul   $0x1ca5,%eax,%eax
  401452:	89 44 24 d8          	mov    %eax,-0x28(%rsp)
  401456:	8b 44 24 dc          	mov    -0x24(%rsp),%eax
  40145a:	69 c0 7e 8a 00 00    	imul   $0x8a7e,%eax,%eax
  401460:	89 44 24 dc          	mov    %eax,-0x24(%rsp)
  401464:	8b 44 24 d0          	mov    -0x30(%rsp),%eax
  401468:	69 c0 1c 46 00 00    	imul   $0x461c,%eax,%eax
  40146e:	89 44 24 d0          	mov    %eax,-0x30(%rsp)
  401472:	8b 44 24 c8          	mov    -0x38(%rsp),%eax
  401476:	69 c0 93 93 00 00    	imul   $0x9393,%eax,%eax
  40147c:	89 44 24 c8          	mov    %eax,-0x38(%rsp)
  401480:	8b 44 24 e8          	mov    -0x18(%rsp),%eax
  401484:	69 c0 64 16 00 00    	imul   $0x1664,%eax,%eax
  40148a:	89 44 24 e8          	mov    %eax,-0x18(%rsp)
  40148e:	8b 44 24 e4          	mov    -0x1c(%rsp),%eax
  401492:	69 c0 01 a5 00 00    	imul   $0xa501,%eax,%eax
  401498:	89 44 24 e4          	mov    %eax,-0x1c(%rsp)
  40149c:	8b 44 24 d8          	mov    -0x28(%rsp),%eax
  4014a0:	69 c0 5c 6e 00 00    	imul   $0x6e5c,%eax,%eax
  4014a6:	89 44 24 d8          	mov    %eax,-0x28(%rsp)
  4014aa:	8b 44 24 e8          	mov    -0x18(%rsp),%eax
  4014ae:	69 c0 8d f9 00 00    	imul   $0xf98d,%eax,%eax
  4014b4:	89 44 24 e8          	mov    %eax,-0x18(%rsp)
  4014b8:	8b 44 24 d8          	mov    -0x28(%rsp),%eax
  4014bc:	69 c0 a3 0d 00 00    	imul   $0xda3,%eax,%eax
  4014c2:	89 44 24 d8          	mov    %eax,-0x28(%rsp)
  4014c6:	8b 44 24 e8          	mov    -0x18(%rsp),%eax
  4014ca:	69 c0 44 28 00 00    	imul   $0x2844,%eax,%eax
  4014d0:	89 44 24 e8          	mov    %eax,-0x18(%rsp)
  4014d4:	8b 44 24 ec          	mov    -0x14(%rsp),%eax
  4014d8:	69 c0 25 cb 00 00    	imul   $0xcb25,%eax,%eax
  4014de:	89 44 24 ec          	mov    %eax,-0x14(%rsp)
  4014e2:	8b 44 24 ec          	mov    -0x14(%rsp),%eax
  4014e6:	69 c0 a0 47 00 00    	imul   $0x47a0,%eax,%eax
  4014ec:	89 44 24 ec          	mov    %eax,-0x14(%rsp)
  4014f0:	8b 44 24 cc          	mov    -0x34(%rsp),%eax
  4014f4:	69 c0 15 42 00 00    	imul   $0x4215,%eax,%eax
  4014fa:	89 44 24 cc          	mov    %eax,-0x34(%rsp)
  4014fe:	8b 44 24 d0          	mov    -0x30(%rsp),%eax
  401502:	69 c0 72 aa 00 00    	imul   $0xaa72,%eax,%eax
  401508:	89 44 24 d0          	mov    %eax,-0x30(%rsp)
  40150c:	8b 44 24 d4          	mov    -0x2c(%rsp),%eax
  401510:	69 c0 6a d4 00 00    	imul   $0xd46a,%eax,%eax
  401516:	89 44 24 d4          	mov    %eax,-0x2c(%rsp)
  40151a:	8b 44 24 e4          	mov    -0x1c(%rsp),%eax
  40151e:	69 c0 55 3d 00 00    	imul   $0x3d55,%eax,%eax
  401524:	89 44 24 e4          	mov    %eax,-0x1c(%rsp)
  401528:	8b 44 24 dc          	mov    -0x24(%rsp),%eax
  40152c:	69 c0 87 43 00 00    	imul   $0x4387,%eax,%eax
  401532:	89 44 24 dc          	mov    %eax,-0x24(%rsp)
  401536:	8b 44 24 e4          	mov    -0x1c(%rsp),%eax
  40153a:	69 c0 0c 74 00 00    	imul   $0x740c,%eax,%eax
  401540:	89 44 24 e4          	mov    %eax,-0x1c(%rsp)
  401544:	8b 44 24 e0          	mov    -0x20(%rsp),%eax
  401548:	69 c0 9b 73 00 00    	imul   $0x739b,%eax,%eax
  40154e:	89 44 24 e0          	mov    %eax,-0x20(%rsp)
  401552:	8b 44 24 e4          	mov    -0x1c(%rsp),%eax
  401556:	69 c0 a7 40 00 00    	imul   $0x40a7,%eax,%eax
  40155c:	89 44 24 e4          	mov    %eax,-0x1c(%rsp)
  401560:	8b 44 24 dc          	mov    -0x24(%rsp),%eax
  401564:	69 c0 b0 0f 00 00    	imul   $0xfb0,%eax,%eax
  40156a:	89 44 24 dc          	mov    %eax,-0x24(%rsp)
  40156e:	8b 44 24 e0          	mov    -0x20(%rsp),%eax
  401572:	69 c0 ed 4a 00 00    	imul   $0x4aed,%eax,%eax
  401578:	89 44 24 e0          	mov    %eax,-0x20(%rsp)
  40157c:	8b 44 24 e0          	mov    -0x20(%rsp),%eax
  401580:	69 c0 6d 4a 00 00    	imul   $0x4a6d,%eax,%eax
  401586:	89 44 24 e0          	mov    %eax,-0x20(%rsp)
  40158a:	8b 44 24 cc          	mov    -0x34(%rsp),%eax
  40158e:	89 c2                	mov    %eax,%edx
  401590:	c1 e2 05             	shl    $0x5,%edx
  401593:	c1 e0 0b             	shl    $0xb,%eax
  401596:	29 d0                	sub    %edx,%eax
  401598:	89 44 24 cc          	mov    %eax,-0x34(%rsp)
  40159c:	8b 44 24 e4          	mov    -0x1c(%rsp),%eax
  4015a0:	69 c0 b6 f0 00 00    	imul   $0xf0b6,%eax,%eax
  4015a6:	89 44 24 e4          	mov    %eax,-0x1c(%rsp)
  4015aa:	8b 44 24 d8          	mov    -0x28(%rsp),%eax
  4015ae:	69 c0 41 97 00 00    	imul   $0x9741,%eax,%eax
  4015b4:	89 44 24 d8          	mov    %eax,-0x28(%rsp)
  4015b8:	8b 44 24 d4          	mov    -0x2c(%rsp),%eax
  4015bc:	69 c0 b8 6a 00 00    	imul   $0x6ab8,%eax,%eax
  4015c2:	89 44 24 d4          	mov    %eax,-0x2c(%rsp)
  4015c6:	8b 44 24 e8          	mov    -0x18(%rsp),%eax
  4015ca:	69 c0 25 d5 00 00    	imul   $0xd525,%eax,%eax
  4015d0:	89 44 24 e8          	mov    %eax,-0x18(%rsp)
  4015d4:	8b 44 24 cc          	mov    -0x34(%rsp),%eax
  4015d8:	69 c0 0e 62 00 00    	imul   $0x620e,%eax,%eax
  4015de:	89 44 24 cc          	mov    %eax,-0x34(%rsp)
  4015e2:	8b 44 24 d4          	mov    -0x2c(%rsp),%eax
  4015e6:	69 c0 e0 42 00 00    	imul   $0x42e0,%eax,%eax
  4015ec:	89 44 24 d4          	mov    %eax,-0x2c(%rsp)
  4015f0:	8b 44 24 cc          	mov    -0x34(%rsp),%eax
  4015f4:	69 c0 38 d3 00 00    	imul   $0xd338,%eax,%eax
  4015fa:	89 44 24 cc          	mov    %eax,-0x34(%rsp)
  4015fe:	8b 44 24 e0          	mov    -0x20(%rsp),%eax
  401602:	69 c0 88 27 00 00    	imul   $0x2788,%eax,%eax
  401608:	89 44 24 e0          	mov    %eax,-0x20(%rsp)
  40160c:	8b 44 24 dc          	mov    -0x24(%rsp),%eax
  401610:	69 c0 09 48 00 00    	imul   $0x4809,%eax,%eax
  401616:	89 44 24 dc          	mov    %eax,-0x24(%rsp)
  40161a:	8b 44 24 e0          	mov    -0x20(%rsp),%eax
  40161e:	69 c0 63 a0 00 00    	imul   $0xa063,%eax,%eax
  401624:	89 44 24 e0          	mov    %eax,-0x20(%rsp)
  401628:	8b 44 24 d4          	mov    -0x2c(%rsp),%eax
  40162c:	69 c0 35 a3 00 00    	imul   $0xa335,%eax,%eax
  401632:	89 44 24 d4          	mov    %eax,-0x2c(%rsp)
  401636:	8b 44 24 e4          	mov    -0x1c(%rsp),%eax
  40163a:	69 c0 a4 45 00 00    	imul   $0x45a4,%eax,%eax
  401640:	89 44 24 e4          	mov    %eax,-0x1c(%rsp)
  401644:	8b 44 24 d4          	mov    -0x2c(%rsp),%eax
  401648:	69 c0 b4 c6 00 00    	imul   $0xc6b4,%eax,%eax
  40164e:	89 44 24 d4          	mov    %eax,-0x2c(%rsp)
  401652:	8b 44 24 ec          	mov    -0x14(%rsp),%eax
  401656:	69 c0 f1 30 00 00    	imul   $0x30f1,%eax,%eax
  40165c:	89 44 24 ec          	mov    %eax,-0x14(%rsp)
  401660:	8b 44 24 d0          	mov    -0x30(%rsp),%eax
  401664:	69 c0 0b d5 00 00    	imul   $0xd50b,%eax,%eax
  40166a:	89 44 24 d0          	mov    %eax,-0x30(%rsp)
  40166e:	8b 44 24 d4          	mov    -0x2c(%rsp),%eax
  401672:	69 c0 32 69 00 00    	imul   $0x6932,%eax,%eax
  401678:	89 44 24 d4          	mov    %eax,-0x2c(%rsp)
  40167c:	8b 44 24 d8          	mov    -0x28(%rsp),%eax
  401680:	69 c0 f7 68 00 00    	imul   $0x68f7,%eax,%eax
  401686:	89 44 24 d8          	mov    %eax,-0x28(%rsp)
  40168a:	8b 44 24 dc          	mov    -0x24(%rsp),%eax
  40168e:	69 c0 9d 81 00 00    	imul   $0x819d,%eax,%eax
  401694:	89 44 24 dc          	mov    %eax,-0x24(%rsp)
  401698:	8b 44 24 d4          	mov    -0x2c(%rsp),%eax
  40169c:	69 c0 55 df 00 00    	imul   $0xdf55,%eax,%eax
  4016a2:	89 44 24 d4          	mov    %eax,-0x2c(%rsp)
  4016a6:	8b 44 24 e0          	mov    -0x20(%rsp),%eax
  4016aa:	69 c0 7d 80 00 00    	imul   $0x807d,%eax,%eax
  4016b0:	89 44 24 e0          	mov    %eax,-0x20(%rsp)
  4016b4:	8b 44 24 e8          	mov    -0x18(%rsp),%eax
  4016b8:	69 c0 5a d6 00 00    	imul   $0xd65a,%eax,%eax
  4016be:	89 44 24 e8          	mov    %eax,-0x18(%rsp)
  4016c2:	8b 44 24 d4          	mov    -0x2c(%rsp),%eax
  4016c6:	69 c0 dd 77 00 00    	imul   $0x77dd,%eax,%eax
  4016cc:	89 44 24 d4          	mov    %eax,-0x2c(%rsp)
  4016d0:	8b 44 24 cc          	mov    -0x34(%rsp),%eax
  4016d4:	69 c0 93 43 00 00    	imul   $0x4393,%eax,%eax
  4016da:	89 44 24 cc          	mov    %eax,-0x34(%rsp)
  4016de:	8b 44 24 e8          	mov    -0x18(%rsp),%eax
  4016e2:	69 c0 53 c0 00 00    	imul   $0xc053,%eax,%eax
  4016e8:	89 44 24 e8          	mov    %eax,-0x18(%rsp)
  4016ec:	8b 44 24 d8          	mov    -0x28(%rsp),%eax
  4016f0:	69 c0 fa 3a 00 00    	imul   $0x3afa,%eax,%eax
  4016f6:	89 44 24 d8          	mov    %eax,-0x28(%rsp)
  4016fa:	8b 44 24 ec          	mov    -0x14(%rsp),%eax
  4016fe:	69 c0 41 47 00 00    	imul   $0x4741,%eax,%eax
  401704:	89 44 24 ec          	mov    %eax,-0x14(%rsp)
  401708:	8b 44 24 d4          	mov    -0x2c(%rsp),%eax
  40170c:	69 c0 c1 41 00 00    	imul   $0x41c1,%eax,%eax
  401712:	89 44 24 d4          	mov    %eax,-0x2c(%rsp)
  401716:	8b 44 24 e4          	mov    -0x1c(%rsp),%eax
  40171a:	69 c0 14 91 00 00    	imul   $0x9114,%eax,%eax
  401720:	89 44 24 e4          	mov    %eax,-0x1c(%rsp)
  401724:	8b 44 24 d0          	mov    -0x30(%rsp),%eax
  401728:	69 c0 76 1d 00 00    	imul   $0x1d76,%eax,%eax
  40172e:	89 44 24 d0          	mov    %eax,-0x30(%rsp)
  401732:	8b 44 24 ec          	mov    -0x14(%rsp),%eax
  401736:	69 c0 97 19 00 00    	imul   $0x1997,%eax,%eax
  40173c:	89 44 24 ec          	mov    %eax,-0x14(%rsp)
  401740:	8b 44 24 cc          	mov    -0x34(%rsp),%eax
  401744:	69 c0 d8 fa 00 00    	imul   $0xfad8,%eax,%eax
  40174a:	89 44 24 cc          	mov    %eax,-0x34(%rsp)
  40174e:	8b 44 24 d4          	mov    -0x2c(%rsp),%eax
  401752:	69 c0 42 b8 00 00    	imul   $0xb842,%eax,%eax
  401758:	89 44 24 d4          	mov    %eax,-0x2c(%rsp)
  40175c:	8b 44 24 d0          	mov    -0x30(%rsp),%eax
  401760:	69 c0 3d 83 00 00    	imul   $0x833d,%eax,%eax
  401766:	89 44 24 d0          	mov    %eax,-0x30(%rsp)
  40176a:	8b 44 24 ec          	mov    -0x14(%rsp),%eax
  40176e:	69 c0 7e 37 00 00    	imul   $0x377e,%eax,%eax
  401774:	89 44 24 ec          	mov    %eax,-0x14(%rsp)
  401778:	8b 44 24 e0          	mov    -0x20(%rsp),%eax
  40177c:	69 c0 a3 90 00 00    	imul   $0x90a3,%eax,%eax
  401782:	89 44 24 e0          	mov    %eax,-0x20(%rsp)
  401786:	8b 44 24 dc          	mov    -0x24(%rsp),%eax
  40178a:	69 c0 f7 a3 00 00    	imul   $0xa3f7,%eax,%eax
  401790:	89 44 24 dc          	mov    %eax,-0x24(%rsp)
  401794:	8b 44 24 e8          	mov    -0x18(%rsp),%eax
  401798:	69 c0 5a 7b 00 00    	imul   $0x7b5a,%eax,%eax
  40179e:	89 44 24 e8          	mov    %eax,-0x18(%rsp)
  4017a2:	8b 44 24 d4          	mov    -0x2c(%rsp),%eax
  4017a6:	69 c0 90 10 00 00    	imul   $0x1090,%eax,%eax
  4017ac:	89 44 24 d4          	mov    %eax,-0x2c(%rsp)
  4017b0:	8b 44 24 ec          	mov    -0x14(%rsp),%eax
  4017b4:	69 c0 39 bb 00 00    	imul   $0xbb39,%eax,%eax
  4017ba:	89 44 24 ec          	mov    %eax,-0x14(%rsp)
  4017be:	8b 44 24 e8          	mov    -0x18(%rsp),%eax
  4017c2:	69 c0 8a 4a 00 00    	imul   $0x4a8a,%eax,%eax
  4017c8:	89 44 24 e8          	mov    %eax,-0x18(%rsp)
  4017cc:	8b 44 24 cc          	mov    -0x34(%rsp),%eax
  4017d0:	69 c0 9a 31 00 00    	imul   $0x319a,%eax,%eax
  4017d6:	89 44 24 cc          	mov    %eax,-0x34(%rsp)
  4017da:	8b 44 24 dc          	mov    -0x24(%rsp),%eax
  4017de:	69 c0 63 d4 00 00    	imul   $0xd463,%eax,%eax
  4017e4:	89 44 24 dc          	mov    %eax,-0x24(%rsp)
  4017e8:	8b 44 24 e0          	mov    -0x20(%rsp),%eax
  4017ec:	69 c0 b0 1e 00 00    	imul   $0x1eb0,%eax,%eax
  4017f2:	89 44 24 e0          	mov    %eax,-0x20(%rsp)
  4017f6:	8b 44 24 d8          	mov    -0x28(%rsp),%eax
  4017fa:	69 c0 d1 7b 00 00    	imul   $0x7bd1,%eax,%eax
  401800:	89 44 24 d8          	mov    %eax,-0x28(%rsp)
  401804:	8b 44 24 d8          	mov    -0x28(%rsp),%eax
  401808:	69 c0 7e 27 00 00    	imul   $0x277e,%eax,%eax
  40180e:	89 44 24 d8          	mov    %eax,-0x28(%rsp)
  401812:	8b 44 24 d8          	mov    -0x28(%rsp),%eax
  401816:	69 c0 a7 2e 00 00    	imul   $0x2ea7,%eax,%eax
  40181c:	89 44 24 d8          	mov    %eax,-0x28(%rsp)
  401820:	8b 44 24 ec          	mov    -0x14(%rsp),%eax
  401824:	69 c0 31 18 00 00    	imul   $0x1831,%eax,%eax
  40182a:	89 44 24 ec          	mov    %eax,-0x14(%rsp)
  40182e:	8b 44 24 dc          	mov    -0x24(%rsp),%eax
  401832:	69 c0 25 86 00 00    	imul   $0x8625,%eax,%eax
  401838:	89 44 24 dc          	mov    %eax,-0x24(%rsp)
  40183c:	8b 44 24 e4          	mov    -0x1c(%rsp),%eax
  401840:	69 c0 c9 20 00 00    	imul   $0x20c9,%eax,%eax
  401846:	89 44 24 e4          	mov    %eax,-0x1c(%rsp)
  40184a:	8b 44 24 c8          	mov    -0x38(%rsp),%eax
  40184e:	69 c0 02 fe 00 00    	imul   $0xfe02,%eax,%eax
  401854:	89 44 24 c8          	mov    %eax,-0x38(%rsp)
  401858:	8b 44 24 d4          	mov    -0x2c(%rsp),%eax
  40185c:	69 c0 9f 75 00 00    	imul   $0x759f,%eax,%eax
  401862:	89 44 24 d4          	mov    %eax,-0x2c(%rsp)
  401866:	8b 44 24 ec          	mov    -0x14(%rsp),%eax
  40186a:	69 c0 6a 18 00 00    	imul   $0x186a,%eax,%eax
  401870:	89 44 24 ec          	mov    %eax,-0x14(%rsp)
  401874:	8b 44 24 e8          	mov    -0x18(%rsp),%eax
  401878:	69 c0 cd bd 00 00    	imul   $0xbdcd,%eax,%eax
  40187e:	89 44 24 e8          	mov    %eax,-0x18(%rsp)
  401882:	8b 44 24 d8          	mov    -0x28(%rsp),%eax
  401886:	69 c0 e7 af 00 00    	imul   $0xafe7,%eax,%eax
  40188c:	89 44 24 d8          	mov    %eax,-0x28(%rsp)
  401890:	8b 44 24 ec          	mov    -0x14(%rsp),%eax
  401894:	69 c0 de f9 00 00    	imul   $0xf9de,%eax,%eax
  40189a:	89 44 24 ec          	mov    %eax,-0x14(%rsp)
  40189e:	8b 44 24 e0          	mov    -0x20(%rsp),%eax
  4018a2:	69 c0 3a 6f 00 00    	imul   $0x6f3a,%eax,%eax
  4018a8:	89 44 24 e0          	mov    %eax,-0x20(%rsp)
  4018ac:	8b 44 24 d0          	mov    -0x30(%rsp),%eax
  4018b0:	69 c0 3c 8c 00 00    	imul   $0x8c3c,%eax,%eax
  4018b6:	89 44 24 d0          	mov    %eax,-0x30(%rsp)
  4018ba:	8b 44 24 e8          	mov    -0x18(%rsp),%eax
  4018be:	69 c0 d3 9e 00 00    	imul   $0x9ed3,%eax,%eax
  4018c4:	89 44 24 e8          	mov    %eax,-0x18(%rsp)
  4018c8:	8b 44 24 e0          	mov    -0x20(%rsp),%eax
  4018cc:	69 c0 16 a9 00 00    	imul   $0xa916,%eax,%eax
  4018d2:	89 44 24 e0          	mov    %eax,-0x20(%rsp)
  4018d6:	8b 44 24 c8          	mov    -0x38(%rsp),%eax
  4018da:	69 c0 12 e7 00 00    	imul   $0xe712,%eax,%eax
  4018e0:	89 44 24 c8          	mov    %eax,-0x38(%rsp)
  4018e4:	8b 44 24 ec          	mov    -0x14(%rsp),%eax
  4018e8:	69 c0 0c b0 00 00    	imul   $0xb00c,%eax,%eax
  4018ee:	89 44 24 ec          	mov    %eax,-0x14(%rsp)
  4018f2:	ba 00 00 00 00       	mov    $0x0,%edx
  4018f7:	b8 00 00 00 00       	mov    $0x0,%eax
  4018fc:	eb 0b                	jmp    401909 <scramble+0x56a>
  4018fe:	89 d1                	mov    %edx,%ecx
  401900:	8b 4c 8c c8          	mov    -0x38(%rsp,%rcx,4),%ecx
  401904:	01 c8                	add    %ecx,%eax
  401906:	83 c2 01             	add    $0x1,%edx
  401909:	83 fa 09             	cmp    $0x9,%edx
  40190c:	76 f0                	jbe    4018fe <scramble+0x55f>
  40190e:	f3 c3                	repz retq 

0000000000401910 <getbuf>:
  401910:	48 83 ec 18          	sub    $0x18,%rsp
  401914:	48 89 e7             	mov    %rsp,%rdi
  401917:	e8 7e 02 00 00       	callq  401b9a <Gets>
  40191c:	b8 01 00 00 00       	mov    $0x1,%eax
  401921:	48 83 c4 18          	add    $0x18,%rsp
  401925:	c3                   	retq   

0000000000401926 <touch1>:
  401926:	48 83 ec 08          	sub    $0x8,%rsp
  40192a:	c7 05 e8 3b 20 00 01 	movl   $0x1,0x203be8(%rip)        # 60551c <vlevel>
  401931:	00 00 00 
  401934:	bf 2b 32 40 00       	mov    $0x40322b,%edi
  401939:	e8 a2 f3 ff ff       	callq  400ce0 <puts@plt>
  40193e:	bf 01 00 00 00       	mov    $0x1,%edi
  401943:	e8 97 04 00 00       	callq  401ddf <validate>
  401948:	bf 00 00 00 00       	mov    $0x0,%edi
  40194d:	e8 1e f5 ff ff       	callq  400e70 <exit@plt>

0000000000401952 <touch2>:
  401952:	48 83 ec 08          	sub    $0x8,%rsp
  401956:	89 fa                	mov    %edi,%edx
  401958:	c7 05 ba 3b 20 00 02 	movl   $0x2,0x203bba(%rip)        # 60551c <vlevel>
  40195f:	00 00 00 
  401962:	39 3d bc 3b 20 00    	cmp    %edi,0x203bbc(%rip)        # 605524 <cookie>
  401968:	75 20                	jne    40198a <touch2+0x38>
  40196a:	be 50 32 40 00       	mov    $0x403250,%esi
  40196f:	bf 01 00 00 00       	mov    $0x1,%edi
  401974:	b8 00 00 00 00       	mov    $0x0,%eax
  401979:	e8 a2 f4 ff ff       	callq  400e20 <__printf_chk@plt>
  40197e:	bf 02 00 00 00       	mov    $0x2,%edi
  401983:	e8 57 04 00 00       	callq  401ddf <validate>
  401988:	eb 1e                	jmp    4019a8 <touch2+0x56>
  40198a:	be 78 32 40 00       	mov    $0x403278,%esi
  40198f:	bf 01 00 00 00       	mov    $0x1,%edi
  401994:	b8 00 00 00 00       	mov    $0x0,%eax
  401999:	e8 82 f4 ff ff       	callq  400e20 <__printf_chk@plt>
  40199e:	bf 02 00 00 00       	mov    $0x2,%edi
  4019a3:	e8 f9 04 00 00       	callq  401ea1 <fail>
  4019a8:	bf 00 00 00 00       	mov    $0x0,%edi
  4019ad:	e8 be f4 ff ff       	callq  400e70 <exit@plt>

00000000004019b2 <hexmatch>:
  4019b2:	41 54                	push   %r12
  4019b4:	55                   	push   %rbp
  4019b5:	53                   	push   %rbx
  4019b6:	48 83 c4 80          	add    $0xffffffffffffff80,%rsp
  4019ba:	89 fd                	mov    %edi,%ebp
  4019bc:	48 89 f3             	mov    %rsi,%rbx
  4019bf:	64 48 8b 04 25 28 00 	mov    %fs:0x28,%rax
  4019c6:	00 00 
  4019c8:	48 89 44 24 78       	mov    %rax,0x78(%rsp)
  4019cd:	31 c0                	xor    %eax,%eax
  4019cf:	e8 0c f4 ff ff       	callq  400de0 <random@plt>
  4019d4:	48 89 c1             	mov    %rax,%rcx
  4019d7:	48 ba 0b d7 a3 70 3d 	movabs $0xa3d70a3d70a3d70b,%rdx
  4019de:	0a d7 a3 
  4019e1:	48 f7 ea             	imul   %rdx
  4019e4:	48 01 ca             	add    %rcx,%rdx
  4019e7:	48 c1 fa 06          	sar    $0x6,%rdx
  4019eb:	48 89 c8             	mov    %rcx,%rax
  4019ee:	48 c1 f8 3f          	sar    $0x3f,%rax
  4019f2:	48 29 c2             	sub    %rax,%rdx
  4019f5:	48 8d 04 92          	lea    (%rdx,%rdx,4),%rax
  4019f9:	48 8d 14 80          	lea    (%rax,%rax,4),%rdx
  4019fd:	48 8d 04 95 00 00 00 	lea    0x0(,%rdx,4),%rax
  401a04:	00 
  401a05:	48 29 c1             	sub    %rax,%rcx
  401a08:	4c 8d 24 0c          	lea    (%rsp,%rcx,1),%r12
  401a0c:	41 89 e8             	mov    %ebp,%r8d
  401a0f:	b9 48 32 40 00       	mov    $0x403248,%ecx
  401a14:	48 c7 c2 ff ff ff ff 	mov    $0xffffffffffffffff,%rdx
  401a1b:	be 01 00 00 00       	mov    $0x1,%esi
  401a20:	4c 89 e7             	mov    %r12,%rdi
  401a23:	b8 00 00 00 00       	mov    $0x0,%eax
  401a28:	e8 73 f4 ff ff       	callq  400ea0 <__sprintf_chk@plt>
  401a2d:	ba 09 00 00 00       	mov    $0x9,%edx
  401a32:	4c 89 e6             	mov    %r12,%rsi
  401a35:	48 89 df             	mov    %rbx,%rdi
  401a38:	e8 83 f2 ff ff       	callq  400cc0 <strncmp@plt>
  401a3d:	85 c0                	test   %eax,%eax
  401a3f:	0f 94 c0             	sete   %al
  401a42:	48 8b 5c 24 78       	mov    0x78(%rsp),%rbx
  401a47:	64 48 33 1c 25 28 00 	xor    %fs:0x28,%rbx
  401a4e:	00 00 
  401a50:	74 05                	je     401a57 <hexmatch+0xa5>
  401a52:	e8 a9 f2 ff ff       	callq  400d00 <__stack_chk_fail@plt>
  401a57:	0f b6 c0             	movzbl %al,%eax
  401a5a:	48 83 ec 80          	sub    $0xffffffffffffff80,%rsp
  401a5e:	5b                   	pop    %rbx
  401a5f:	5d                   	pop    %rbp
  401a60:	41 5c                	pop    %r12
  401a62:	c3                   	retq   

0000000000401a63 <touch3>:
  401a63:	53                   	push   %rbx
  401a64:	48 89 fb             	mov    %rdi,%rbx
  401a67:	c7 05 ab 3a 20 00 03 	movl   $0x3,0x203aab(%rip)        # 60551c <vlevel>
  401a6e:	00 00 00 
  401a71:	48 89 fe             	mov    %rdi,%rsi
  401a74:	8b 3d aa 3a 20 00    	mov    0x203aaa(%rip),%edi        # 605524 <cookie>
  401a7a:	e8 33 ff ff ff       	callq  4019b2 <hexmatch>
  401a7f:	85 c0                	test   %eax,%eax
  401a81:	74 23                	je     401aa6 <touch3+0x43>
  401a83:	48 89 da             	mov    %rbx,%rdx
  401a86:	be a0 32 40 00       	mov    $0x4032a0,%esi
  401a8b:	bf 01 00 00 00       	mov    $0x1,%edi
  401a90:	b8 00 00 00 00       	mov    $0x0,%eax
  401a95:	e8 86 f3 ff ff       	callq  400e20 <__printf_chk@plt>
  401a9a:	bf 03 00 00 00       	mov    $0x3,%edi
  401a9f:	e8 3b 03 00 00       	callq  401ddf <validate>
  401aa4:	eb 21                	jmp    401ac7 <touch3+0x64>
  401aa6:	48 89 da             	mov    %rbx,%rdx
  401aa9:	be c8 32 40 00       	mov    $0x4032c8,%esi
  401aae:	bf 01 00 00 00       	mov    $0x1,%edi
  401ab3:	b8 00 00 00 00       	mov    $0x0,%eax
  401ab8:	e8 63 f3 ff ff       	callq  400e20 <__printf_chk@plt>
  401abd:	bf 03 00 00 00       	mov    $0x3,%edi
  401ac2:	e8 da 03 00 00       	callq  401ea1 <fail>
  401ac7:	bf 00 00 00 00       	mov    $0x0,%edi
  401acc:	e8 9f f3 ff ff       	callq  400e70 <exit@plt>

0000000000401ad1 <test>:
  401ad1:	48 83 ec 08          	sub    $0x8,%rsp
  401ad5:	b8 00 00 00 00       	mov    $0x0,%eax
  401ada:	e8 31 fe ff ff       	callq  401910 <getbuf>
  401adf:	89 c2                	mov    %eax,%edx
  401ae1:	be f0 32 40 00       	mov    $0x4032f0,%esi
  401ae6:	bf 01 00 00 00       	mov    $0x1,%edi
  401aeb:	b8 00 00 00 00       	mov    $0x0,%eax
  401af0:	e8 2b f3 ff ff       	callq  400e20 <__printf_chk@plt>
  401af5:	48 83 c4 08          	add    $0x8,%rsp
  401af9:	c3                   	retq   

0000000000401afa <save_char>:
  401afa:	8b 05 44 46 20 00    	mov    0x204644(%rip),%eax        # 606144 <gets_cnt>
  401b00:	3d ff 03 00 00       	cmp    $0x3ff,%eax
  401b05:	7f 49                	jg     401b50 <save_char+0x56>
  401b07:	8d 14 40             	lea    (%rax,%rax,2),%edx
  401b0a:	89 f9                	mov    %edi,%ecx
  401b0c:	c0 e9 04             	shr    $0x4,%cl
  401b0f:	83 e1 0f             	and    $0xf,%ecx
  401b12:	0f b6 b1 10 36 40 00 	movzbl 0x403610(%rcx),%esi
  401b19:	48 63 ca             	movslq %edx,%rcx
  401b1c:	40 88 b1 40 55 60 00 	mov    %sil,0x605540(%rcx)
  401b23:	8d 4a 01             	lea    0x1(%rdx),%ecx
  401b26:	83 e7 0f             	and    $0xf,%edi
  401b29:	0f b6 b7 10 36 40 00 	movzbl 0x403610(%rdi),%esi
  401b30:	48 63 c9             	movslq %ecx,%rcx
  401b33:	40 88 b1 40 55 60 00 	mov    %sil,0x605540(%rcx)
  401b3a:	83 c2 02             	add    $0x2,%edx
  401b3d:	48 63 d2             	movslq %edx,%rdx
  401b40:	c6 82 40 55 60 00 20 	movb   $0x20,0x605540(%rdx)
  401b47:	83 c0 01             	add    $0x1,%eax
  401b4a:	89 05 f4 45 20 00    	mov    %eax,0x2045f4(%rip)        # 606144 <gets_cnt>
  401b50:	f3 c3                	repz retq 

0000000000401b52 <save_term>:
  401b52:	8b 05 ec 45 20 00    	mov    0x2045ec(%rip),%eax        # 606144 <gets_cnt>
  401b58:	8d 04 40             	lea    (%rax,%rax,2),%eax
  401b5b:	48 98                	cltq   
  401b5d:	c6 80 40 55 60 00 00 	movb   $0x0,0x605540(%rax)
  401b64:	c3                   	retq   

0000000000401b65 <check_fail>:
  401b65:	48 83 ec 08          	sub    $0x8,%rsp
  401b69:	0f be 15 d8 45 20 00 	movsbl 0x2045d8(%rip),%edx        # 606148 <target_prefix>
  401b70:	41 b8 40 55 60 00    	mov    $0x605540,%r8d
  401b76:	8b 0d 9c 39 20 00    	mov    0x20399c(%rip),%ecx        # 605518 <check_level>
  401b7c:	be 13 33 40 00       	mov    $0x403313,%esi
  401b81:	bf 01 00 00 00       	mov    $0x1,%edi
  401b86:	b8 00 00 00 00       	mov    $0x0,%eax
  401b8b:	e8 90 f2 ff ff       	callq  400e20 <__printf_chk@plt>
  401b90:	bf 01 00 00 00       	mov    $0x1,%edi
  401b95:	e8 d6 f2 ff ff       	callq  400e70 <exit@plt>

0000000000401b9a <Gets>:
  401b9a:	41 54                	push   %r12
  401b9c:	55                   	push   %rbp
  401b9d:	53                   	push   %rbx
  401b9e:	49 89 fc             	mov    %rdi,%r12
  401ba1:	c7 05 99 45 20 00 00 	movl   $0x0,0x204599(%rip)        # 606144 <gets_cnt>
  401ba8:	00 00 00 
  401bab:	48 89 fb             	mov    %rdi,%rbx
  401bae:	eb 11                	jmp    401bc1 <Gets+0x27>
  401bb0:	48 8d 6b 01          	lea    0x1(%rbx),%rbp
  401bb4:	88 03                	mov    %al,(%rbx)
  401bb6:	0f b6 f8             	movzbl %al,%edi
  401bb9:	e8 3c ff ff ff       	callq  401afa <save_char>
  401bbe:	48 89 eb             	mov    %rbp,%rbx
  401bc1:	48 8b 3d 48 39 20 00 	mov    0x203948(%rip),%rdi        # 605510 <infile>
  401bc8:	e8 23 f2 ff ff       	callq  400df0 <_IO_getc@plt>
  401bcd:	83 f8 ff             	cmp    $0xffffffff,%eax
  401bd0:	74 05                	je     401bd7 <Gets+0x3d>
  401bd2:	83 f8 0a             	cmp    $0xa,%eax
  401bd5:	75 d9                	jne    401bb0 <Gets+0x16>
  401bd7:	c6 03 00             	movb   $0x0,(%rbx)
  401bda:	b8 00 00 00 00       	mov    $0x0,%eax
  401bdf:	e8 6e ff ff ff       	callq  401b52 <save_term>
  401be4:	4c 89 e0             	mov    %r12,%rax
  401be7:	5b                   	pop    %rbx
  401be8:	5d                   	pop    %rbp
  401be9:	41 5c                	pop    %r12
  401beb:	c3                   	retq   

0000000000401bec <notify_server>:
  401bec:	53                   	push   %rbx
  401bed:	48 81 ec 10 40 00 00 	sub    $0x4010,%rsp
  401bf4:	64 48 8b 04 25 28 00 	mov    %fs:0x28,%rax
  401bfb:	00 00 
  401bfd:	48 89 84 24 08 40 00 	mov    %rax,0x4008(%rsp)
  401c04:	00 
  401c05:	31 c0                	xor    %eax,%eax
  401c07:	83 3d 1a 39 20 00 00 	cmpl   $0x0,0x20391a(%rip)        # 605528 <is_checker>
  401c0e:	0f 85 aa 01 00 00    	jne    401dbe <notify_server+0x1d2>
  401c14:	89 fb                	mov    %edi,%ebx
  401c16:	8b 05 28 45 20 00    	mov    0x204528(%rip),%eax        # 606144 <gets_cnt>
  401c1c:	83 c0 64             	add    $0x64,%eax
  401c1f:	3d 00 20 00 00       	cmp    $0x2000,%eax
  401c24:	7e 1e                	jle    401c44 <notify_server+0x58>
  401c26:	be 48 34 40 00       	mov    $0x403448,%esi
  401c2b:	bf 01 00 00 00       	mov    $0x1,%edi
  401c30:	b8 00 00 00 00       	mov    $0x0,%eax
  401c35:	e8 e6 f1 ff ff       	callq  400e20 <__printf_chk@plt>
  401c3a:	bf 01 00 00 00       	mov    $0x1,%edi
  401c3f:	e8 2c f2 ff ff       	callq  400e70 <exit@plt>
  401c44:	0f be 05 fd 44 20 00 	movsbl 0x2044fd(%rip),%eax        # 606148 <target_prefix>
  401c4b:	83 3d 56 38 20 00 00 	cmpl   $0x0,0x203856(%rip)        # 6054a8 <notify>
  401c52:	74 08                	je     401c5c <notify_server+0x70>
  401c54:	8b 15 c6 38 20 00    	mov    0x2038c6(%rip),%edx        # 605520 <authkey>
  401c5a:	eb 05                	jmp    401c61 <notify_server+0x75>
  401c5c:	ba ff ff ff ff       	mov    $0xffffffff,%edx
  401c61:	85 db                	test   %ebx,%ebx
  401c63:	74 08                	je     401c6d <notify_server+0x81>
  401c65:	41 b9 29 33 40 00    	mov    $0x403329,%r9d
  401c6b:	eb 06                	jmp    401c73 <notify_server+0x87>
  401c6d:	41 b9 2e 33 40 00    	mov    $0x40332e,%r9d
  401c73:	68 40 55 60 00       	pushq  $0x605540
  401c78:	56                   	push   %rsi
  401c79:	50                   	push   %rax
  401c7a:	52                   	push   %rdx
  401c7b:	44 8b 05 e6 34 20 00 	mov    0x2034e6(%rip),%r8d        # 605168 <target_id>
  401c82:	b9 33 33 40 00       	mov    $0x403333,%ecx
  401c87:	ba 00 20 00 00       	mov    $0x2000,%edx
  401c8c:	be 01 00 00 00       	mov    $0x1,%esi
  401c91:	48 8d 7c 24 20       	lea    0x20(%rsp),%rdi
  401c96:	b8 00 00 00 00       	mov    $0x0,%eax
  401c9b:	e8 00 f2 ff ff       	callq  400ea0 <__sprintf_chk@plt>
  401ca0:	48 83 c4 20          	add    $0x20,%rsp
  401ca4:	83 3d fd 37 20 00 00 	cmpl   $0x0,0x2037fd(%rip)        # 6054a8 <notify>
  401cab:	0f 84 81 00 00 00    	je     401d32 <notify_server+0x146>
  401cb1:	85 db                	test   %ebx,%ebx
  401cb3:	74 6e                	je     401d23 <notify_server+0x137>
  401cb5:	4c 8d 8c 24 00 20 00 	lea    0x2000(%rsp),%r9
  401cbc:	00 
  401cbd:	41 b8 00 00 00 00    	mov    $0x0,%r8d
  401cc3:	48 89 e1             	mov    %rsp,%rcx
  401cc6:	48 8b 15 a3 34 20 00 	mov    0x2034a3(%rip),%rdx        # 605170 <lab>
  401ccd:	48 8b 35 a4 34 20 00 	mov    0x2034a4(%rip),%rsi        # 605178 <course>
  401cd4:	48 8b 3d 85 34 20 00 	mov    0x203485(%rip),%rdi        # 605160 <user_id>
  401cdb:	e8 bb 10 00 00       	callq  402d9b <driver_post>
  401ce0:	85 c0                	test   %eax,%eax
  401ce2:	79 26                	jns    401d0a <notify_server+0x11e>
  401ce4:	48 8d 94 24 00 20 00 	lea    0x2000(%rsp),%rdx
  401ceb:	00 
  401cec:	be 4f 33 40 00       	mov    $0x40334f,%esi
  401cf1:	bf 01 00 00 00       	mov    $0x1,%edi
  401cf6:	b8 00 00 00 00       	mov    $0x0,%eax
  401cfb:	e8 20 f1 ff ff       	callq  400e20 <__printf_chk@plt>
  401d00:	bf 01 00 00 00       	mov    $0x1,%edi
  401d05:	e8 66 f1 ff ff       	callq  400e70 <exit@plt>
  401d0a:	bf 78 34 40 00       	mov    $0x403478,%edi
  401d0f:	e8 cc ef ff ff       	callq  400ce0 <puts@plt>
  401d14:	bf 5b 33 40 00       	mov    $0x40335b,%edi
  401d19:	e8 c2 ef ff ff       	callq  400ce0 <puts@plt>
  401d1e:	e9 9b 00 00 00       	jmpq   401dbe <notify_server+0x1d2>
  401d23:	bf 65 33 40 00       	mov    $0x403365,%edi
  401d28:	e8 b3 ef ff ff       	callq  400ce0 <puts@plt>
  401d2d:	e9 8c 00 00 00       	jmpq   401dbe <notify_server+0x1d2>
  401d32:	85 db                	test   %ebx,%ebx
  401d34:	74 07                	je     401d3d <notify_server+0x151>
  401d36:	ba 29 33 40 00       	mov    $0x403329,%edx
  401d3b:	eb 05                	jmp    401d42 <notify_server+0x156>
  401d3d:	ba 2e 33 40 00       	mov    $0x40332e,%edx
  401d42:	be b0 34 40 00       	mov    $0x4034b0,%esi
  401d47:	bf 01 00 00 00       	mov    $0x1,%edi
  401d4c:	b8 00 00 00 00       	mov    $0x0,%eax
  401d51:	e8 ca f0 ff ff       	callq  400e20 <__printf_chk@plt>
  401d56:	48 8b 15 03 34 20 00 	mov    0x203403(%rip),%rdx        # 605160 <user_id>
  401d5d:	be 6c 33 40 00       	mov    $0x40336c,%esi
  401d62:	bf 01 00 00 00       	mov    $0x1,%edi
  401d67:	b8 00 00 00 00       	mov    $0x0,%eax
  401d6c:	e8 af f0 ff ff       	callq  400e20 <__printf_chk@plt>
  401d71:	48 8b 15 00 34 20 00 	mov    0x203400(%rip),%rdx        # 605178 <course>
  401d78:	be 79 33 40 00       	mov    $0x403379,%esi
  401d7d:	bf 01 00 00 00       	mov    $0x1,%edi
  401d82:	b8 00 00 00 00       	mov    $0x0,%eax
  401d87:	e8 94 f0 ff ff       	callq  400e20 <__printf_chk@plt>
  401d8c:	48 8b 15 dd 33 20 00 	mov    0x2033dd(%rip),%rdx        # 605170 <lab>
  401d93:	be 85 33 40 00       	mov    $0x403385,%esi
  401d98:	bf 01 00 00 00       	mov    $0x1,%edi
  401d9d:	b8 00 00 00 00       	mov    $0x0,%eax
  401da2:	e8 79 f0 ff ff       	callq  400e20 <__printf_chk@plt>
  401da7:	48 89 e2             	mov    %rsp,%rdx
  401daa:	be 8e 33 40 00       	mov    $0x40338e,%esi
  401daf:	bf 01 00 00 00       	mov    $0x1,%edi
  401db4:	b8 00 00 00 00       	mov    $0x0,%eax
  401db9:	e8 62 f0 ff ff       	callq  400e20 <__printf_chk@plt>
  401dbe:	48 8b 84 24 08 40 00 	mov    0x4008(%rsp),%rax
  401dc5:	00 
  401dc6:	64 48 33 04 25 28 00 	xor    %fs:0x28,%rax
  401dcd:	00 00 
  401dcf:	74 05                	je     401dd6 <notify_server+0x1ea>
  401dd1:	e8 2a ef ff ff       	callq  400d00 <__stack_chk_fail@plt>
  401dd6:	48 81 c4 10 40 00 00 	add    $0x4010,%rsp
  401ddd:	5b                   	pop    %rbx
  401dde:	c3                   	retq   

0000000000401ddf <validate>:
  401ddf:	53                   	push   %rbx
  401de0:	89 fb                	mov    %edi,%ebx
  401de2:	83 3d 3f 37 20 00 00 	cmpl   $0x0,0x20373f(%rip)        # 605528 <is_checker>
  401de9:	74 6b                	je     401e56 <validate+0x77>
  401deb:	39 3d 2b 37 20 00    	cmp    %edi,0x20372b(%rip)        # 60551c <vlevel>
  401df1:	74 14                	je     401e07 <validate+0x28>
  401df3:	bf 9a 33 40 00       	mov    $0x40339a,%edi
  401df8:	e8 e3 ee ff ff       	callq  400ce0 <puts@plt>
  401dfd:	b8 00 00 00 00       	mov    $0x0,%eax
  401e02:	e8 5e fd ff ff       	callq  401b65 <check_fail>
  401e07:	8b 15 0b 37 20 00    	mov    0x20370b(%rip),%edx        # 605518 <check_level>
  401e0d:	39 d7                	cmp    %edx,%edi
  401e0f:	74 20                	je     401e31 <validate+0x52>
  401e11:	89 f9                	mov    %edi,%ecx
  401e13:	be d8 34 40 00       	mov    $0x4034d8,%esi
  401e18:	bf 01 00 00 00       	mov    $0x1,%edi
  401e1d:	b8 00 00 00 00       	mov    $0x0,%eax
  401e22:	e8 f9 ef ff ff       	callq  400e20 <__printf_chk@plt>
  401e27:	b8 00 00 00 00       	mov    $0x0,%eax
  401e2c:	e8 34 fd ff ff       	callq  401b65 <check_fail>
  401e31:	0f be 15 10 43 20 00 	movsbl 0x204310(%rip),%edx        # 606148 <target_prefix>
  401e38:	41 b8 40 55 60 00    	mov    $0x605540,%r8d
  401e3e:	89 f9                	mov    %edi,%ecx
  401e40:	be b8 33 40 00       	mov    $0x4033b8,%esi
  401e45:	bf 01 00 00 00       	mov    $0x1,%edi
  401e4a:	b8 00 00 00 00       	mov    $0x0,%eax
  401e4f:	e8 cc ef ff ff       	callq  400e20 <__printf_chk@plt>
  401e54:	eb 49                	jmp    401e9f <validate+0xc0>
  401e56:	3b 3d c0 36 20 00    	cmp    0x2036c0(%rip),%edi        # 60551c <vlevel>
  401e5c:	74 18                	je     401e76 <validate+0x97>
  401e5e:	bf 9a 33 40 00       	mov    $0x40339a,%edi
  401e63:	e8 78 ee ff ff       	callq  400ce0 <puts@plt>
  401e68:	89 de                	mov    %ebx,%esi
  401e6a:	bf 00 00 00 00       	mov    $0x0,%edi
  401e6f:	e8 78 fd ff ff       	callq  401bec <notify_server>
  401e74:	eb 29                	jmp    401e9f <validate+0xc0>
  401e76:	0f be 0d cb 42 20 00 	movsbl 0x2042cb(%rip),%ecx        # 606148 <target_prefix>
  401e7d:	89 fa                	mov    %edi,%edx
  401e7f:	be 00 35 40 00       	mov    $0x403500,%esi
  401e84:	bf 01 00 00 00       	mov    $0x1,%edi
  401e89:	b8 00 00 00 00       	mov    $0x0,%eax
  401e8e:	e8 8d ef ff ff       	callq  400e20 <__printf_chk@plt>
  401e93:	89 de                	mov    %ebx,%esi
  401e95:	bf 01 00 00 00       	mov    $0x1,%edi
  401e9a:	e8 4d fd ff ff       	callq  401bec <notify_server>
  401e9f:	5b                   	pop    %rbx
  401ea0:	c3                   	retq   

0000000000401ea1 <fail>:
  401ea1:	48 83 ec 08          	sub    $0x8,%rsp
  401ea5:	83 3d 7c 36 20 00 00 	cmpl   $0x0,0x20367c(%rip)        # 605528 <is_checker>
  401eac:	74 0a                	je     401eb8 <fail+0x17>
  401eae:	b8 00 00 00 00       	mov    $0x0,%eax
  401eb3:	e8 ad fc ff ff       	callq  401b65 <check_fail>
  401eb8:	89 fe                	mov    %edi,%esi
  401eba:	bf 00 00 00 00       	mov    $0x0,%edi
  401ebf:	e8 28 fd ff ff       	callq  401bec <notify_server>
  401ec4:	48 83 c4 08          	add    $0x8,%rsp
  401ec8:	c3                   	retq   

0000000000401ec9 <bushandler>:
  401ec9:	48 83 ec 08          	sub    $0x8,%rsp
  401ecd:	83 3d 54 36 20 00 00 	cmpl   $0x0,0x203654(%rip)        # 605528 <is_checker>
  401ed4:	74 14                	je     401eea <bushandler+0x21>
  401ed6:	bf cd 33 40 00       	mov    $0x4033cd,%edi
  401edb:	e8 00 ee ff ff       	callq  400ce0 <puts@plt>
  401ee0:	b8 00 00 00 00       	mov    $0x0,%eax
  401ee5:	e8 7b fc ff ff       	callq  401b65 <check_fail>
  401eea:	bf 38 35 40 00       	mov    $0x403538,%edi
  401eef:	e8 ec ed ff ff       	callq  400ce0 <puts@plt>
  401ef4:	bf d7 33 40 00       	mov    $0x4033d7,%edi
  401ef9:	e8 e2 ed ff ff       	callq  400ce0 <puts@plt>
  401efe:	be 00 00 00 00       	mov    $0x0,%esi
  401f03:	bf 00 00 00 00       	mov    $0x0,%edi
  401f08:	e8 df fc ff ff       	callq  401bec <notify_server>
  401f0d:	bf 01 00 00 00       	mov    $0x1,%edi
  401f12:	e8 59 ef ff ff       	callq  400e70 <exit@plt>

0000000000401f17 <seghandler>:
  401f17:	48 83 ec 08          	sub    $0x8,%rsp
  401f1b:	83 3d 06 36 20 00 00 	cmpl   $0x0,0x203606(%rip)        # 605528 <is_checker>
  401f22:	74 14                	je     401f38 <seghandler+0x21>
  401f24:	bf ed 33 40 00       	mov    $0x4033ed,%edi
  401f29:	e8 b2 ed ff ff       	callq  400ce0 <puts@plt>
  401f2e:	b8 00 00 00 00       	mov    $0x0,%eax
  401f33:	e8 2d fc ff ff       	callq  401b65 <check_fail>
  401f38:	bf 58 35 40 00       	mov    $0x403558,%edi
  401f3d:	e8 9e ed ff ff       	callq  400ce0 <puts@plt>
  401f42:	bf d7 33 40 00       	mov    $0x4033d7,%edi
  401f47:	e8 94 ed ff ff       	callq  400ce0 <puts@plt>
  401f4c:	be 00 00 00 00       	mov    $0x0,%esi
  401f51:	bf 00 00 00 00       	mov    $0x0,%edi
  401f56:	e8 91 fc ff ff       	callq  401bec <notify_server>
  401f5b:	bf 01 00 00 00       	mov    $0x1,%edi
  401f60:	e8 0b ef ff ff       	callq  400e70 <exit@plt>

0000000000401f65 <illegalhandler>:
  401f65:	48 83 ec 08          	sub    $0x8,%rsp
  401f69:	83 3d b8 35 20 00 00 	cmpl   $0x0,0x2035b8(%rip)        # 605528 <is_checker>
  401f70:	74 14                	je     401f86 <illegalhandler+0x21>
  401f72:	bf 00 34 40 00       	mov    $0x403400,%edi
  401f77:	e8 64 ed ff ff       	callq  400ce0 <puts@plt>
  401f7c:	b8 00 00 00 00       	mov    $0x0,%eax
  401f81:	e8 df fb ff ff       	callq  401b65 <check_fail>
  401f86:	bf 80 35 40 00       	mov    $0x403580,%edi
  401f8b:	e8 50 ed ff ff       	callq  400ce0 <puts@plt>
  401f90:	bf d7 33 40 00       	mov    $0x4033d7,%edi
  401f95:	e8 46 ed ff ff       	callq  400ce0 <puts@plt>
  401f9a:	be 00 00 00 00       	mov    $0x0,%esi
  401f9f:	bf 00 00 00 00       	mov    $0x0,%edi
  401fa4:	e8 43 fc ff ff       	callq  401bec <notify_server>
  401fa9:	bf 01 00 00 00       	mov    $0x1,%edi
  401fae:	e8 bd ee ff ff       	callq  400e70 <exit@plt>

0000000000401fb3 <sigalrmhandler>:
  401fb3:	48 83 ec 08          	sub    $0x8,%rsp
  401fb7:	83 3d 6a 35 20 00 00 	cmpl   $0x0,0x20356a(%rip)        # 605528 <is_checker>
  401fbe:	74 14                	je     401fd4 <sigalrmhandler+0x21>
  401fc0:	bf 14 34 40 00       	mov    $0x403414,%edi
  401fc5:	e8 16 ed ff ff       	callq  400ce0 <puts@plt>
  401fca:	b8 00 00 00 00       	mov    $0x0,%eax
  401fcf:	e8 91 fb ff ff       	callq  401b65 <check_fail>
  401fd4:	ba 05 00 00 00       	mov    $0x5,%edx
  401fd9:	be b0 35 40 00       	mov    $0x4035b0,%esi
  401fde:	bf 01 00 00 00       	mov    $0x1,%edi
  401fe3:	b8 00 00 00 00       	mov    $0x0,%eax
  401fe8:	e8 33 ee ff ff       	callq  400e20 <__printf_chk@plt>
  401fed:	be 00 00 00 00       	mov    $0x0,%esi
  401ff2:	bf 00 00 00 00       	mov    $0x0,%edi
  401ff7:	e8 f0 fb ff ff       	callq  401bec <notify_server>
  401ffc:	bf 01 00 00 00       	mov    $0x1,%edi
  402001:	e8 6a ee ff ff       	callq  400e70 <exit@plt>

0000000000402006 <launch>:
  402006:	55                   	push   %rbp
  402007:	48 89 e5             	mov    %rsp,%rbp
  40200a:	48 83 ec 10          	sub    $0x10,%rsp
  40200e:	48 89 fa             	mov    %rdi,%rdx
  402011:	64 48 8b 04 25 28 00 	mov    %fs:0x28,%rax
  402018:	00 00 
  40201a:	48 89 45 f8          	mov    %rax,-0x8(%rbp)
  40201e:	31 c0                	xor    %eax,%eax
  402020:	48 8d 47 1e          	lea    0x1e(%rdi),%rax
  402024:	48 83 e0 f0          	and    $0xfffffffffffffff0,%rax
  402028:	48 29 c4             	sub    %rax,%rsp
  40202b:	48 8d 7c 24 0f       	lea    0xf(%rsp),%rdi
  402030:	48 83 e7 f0          	and    $0xfffffffffffffff0,%rdi
  402034:	be f4 00 00 00       	mov    $0xf4,%esi
  402039:	e8 e2 ec ff ff       	callq  400d20 <memset@plt>
  40203e:	48 8b 05 7b 34 20 00 	mov    0x20347b(%rip),%rax        # 6054c0 <stdin@@GLIBC_2.2.5>
  402045:	48 39 05 c4 34 20 00 	cmp    %rax,0x2034c4(%rip)        # 605510 <infile>
  40204c:	75 14                	jne    402062 <launch+0x5c>
  40204e:	be 1c 34 40 00       	mov    $0x40341c,%esi
  402053:	bf 01 00 00 00       	mov    $0x1,%edi
  402058:	b8 00 00 00 00       	mov    $0x0,%eax
  40205d:	e8 be ed ff ff       	callq  400e20 <__printf_chk@plt>
  402062:	c7 05 b0 34 20 00 00 	movl   $0x0,0x2034b0(%rip)        # 60551c <vlevel>
  402069:	00 00 00 
  40206c:	b8 00 00 00 00       	mov    $0x0,%eax
  402071:	e8 5b fa ff ff       	callq  401ad1 <test>
  402076:	83 3d ab 34 20 00 00 	cmpl   $0x0,0x2034ab(%rip)        # 605528 <is_checker>
  40207d:	74 14                	je     402093 <launch+0x8d>
  40207f:	bf 29 34 40 00       	mov    $0x403429,%edi
  402084:	e8 57 ec ff ff       	callq  400ce0 <puts@plt>
  402089:	b8 00 00 00 00       	mov    $0x0,%eax
  40208e:	e8 d2 fa ff ff       	callq  401b65 <check_fail>
  402093:	bf 34 34 40 00       	mov    $0x403434,%edi
  402098:	e8 43 ec ff ff       	callq  400ce0 <puts@plt>
  40209d:	48 8b 45 f8          	mov    -0x8(%rbp),%rax
  4020a1:	64 48 33 04 25 28 00 	xor    %fs:0x28,%rax
  4020a8:	00 00 
  4020aa:	74 05                	je     4020b1 <launch+0xab>
  4020ac:	e8 4f ec ff ff       	callq  400d00 <__stack_chk_fail@plt>
  4020b1:	c9                   	leaveq 
  4020b2:	c3                   	retq   

00000000004020b3 <stable_launch>:
  4020b3:	53                   	push   %rbx
  4020b4:	48 89 3d 4d 34 20 00 	mov    %rdi,0x20344d(%rip)        # 605508 <global_offset>
  4020bb:	41 b9 00 00 00 00    	mov    $0x0,%r9d
  4020c1:	41 b8 00 00 00 00    	mov    $0x0,%r8d
  4020c7:	b9 32 01 00 00       	mov    $0x132,%ecx
  4020cc:	ba 07 00 00 00       	mov    $0x7,%edx
  4020d1:	be 00 00 10 00       	mov    $0x100000,%esi
  4020d6:	bf 00 60 58 55       	mov    $0x55586000,%edi
  4020db:	e8 30 ec ff ff       	callq  400d10 <mmap@plt>
  4020e0:	48 89 c3             	mov    %rax,%rbx
  4020e3:	48 3d 00 60 58 55    	cmp    $0x55586000,%rax
  4020e9:	74 37                	je     402122 <stable_launch+0x6f>
  4020eb:	be 00 00 10 00       	mov    $0x100000,%esi
  4020f0:	48 89 c7             	mov    %rax,%rdi
  4020f3:	e8 18 ed ff ff       	callq  400e10 <munmap@plt>
  4020f8:	b9 00 60 58 55       	mov    $0x55586000,%ecx
  4020fd:	ba e8 35 40 00       	mov    $0x4035e8,%edx
  402102:	be 01 00 00 00       	mov    $0x1,%esi
  402107:	48 8b 3d da 33 20 00 	mov    0x2033da(%rip),%rdi        # 6054e8 <stderr@@GLIBC_2.2.5>
  40210e:	b8 00 00 00 00       	mov    $0x0,%eax
  402113:	e8 78 ed ff ff       	callq  400e90 <__fprintf_chk@plt>
  402118:	bf 01 00 00 00       	mov    $0x1,%edi
  40211d:	e8 4e ed ff ff       	callq  400e70 <exit@plt>
  402122:	48 8d 90 f8 ff 0f 00 	lea    0xffff8(%rax),%rdx
  402129:	48 89 15 20 40 20 00 	mov    %rdx,0x204020(%rip)        # 606150 <stack_top>
  402130:	48 89 e0             	mov    %rsp,%rax
  402133:	48 89 d4             	mov    %rdx,%rsp
  402136:	48 89 c2             	mov    %rax,%rdx
  402139:	48 89 15 c0 33 20 00 	mov    %rdx,0x2033c0(%rip)        # 605500 <global_save_stack>
  402140:	48 8b 3d c1 33 20 00 	mov    0x2033c1(%rip),%rdi        # 605508 <global_offset>
  402147:	e8 ba fe ff ff       	callq  402006 <launch>
  40214c:	48 8b 05 ad 33 20 00 	mov    0x2033ad(%rip),%rax        # 605500 <global_save_stack>
  402153:	48 89 c4             	mov    %rax,%rsp
  402156:	be 00 00 10 00       	mov    $0x100000,%esi
  40215b:	48 89 df             	mov    %rbx,%rdi
  40215e:	e8 ad ec ff ff       	callq  400e10 <munmap@plt>
  402163:	5b                   	pop    %rbx
  402164:	c3                   	retq   

0000000000402165 <rio_readinitb>:
  402165:	89 37                	mov    %esi,(%rdi)
  402167:	c7 47 04 00 00 00 00 	movl   $0x0,0x4(%rdi)
  40216e:	48 8d 47 10          	lea    0x10(%rdi),%rax
  402172:	48 89 47 08          	mov    %rax,0x8(%rdi)
  402176:	c3                   	retq   

0000000000402177 <sigalrm_handler>:
  402177:	48 83 ec 08          	sub    $0x8,%rsp
  40217b:	b9 00 00 00 00       	mov    $0x0,%ecx
  402180:	ba 20 36 40 00       	mov    $0x403620,%edx
  402185:	be 01 00 00 00       	mov    $0x1,%esi
  40218a:	48 8b 3d 57 33 20 00 	mov    0x203357(%rip),%rdi        # 6054e8 <stderr@@GLIBC_2.2.5>
  402191:	b8 00 00 00 00       	mov    $0x0,%eax
  402196:	e8 f5 ec ff ff       	callq  400e90 <__fprintf_chk@plt>
  40219b:	bf 01 00 00 00       	mov    $0x1,%edi
  4021a0:	e8 cb ec ff ff       	callq  400e70 <exit@plt>

00000000004021a5 <rio_writen>:
  4021a5:	41 55                	push   %r13
  4021a7:	41 54                	push   %r12
  4021a9:	55                   	push   %rbp
  4021aa:	53                   	push   %rbx
  4021ab:	48 83 ec 08          	sub    $0x8,%rsp
  4021af:	41 89 fc             	mov    %edi,%r12d
  4021b2:	48 89 f5             	mov    %rsi,%rbp
  4021b5:	49 89 d5             	mov    %rdx,%r13
  4021b8:	48 89 d3             	mov    %rdx,%rbx
  4021bb:	eb 28                	jmp    4021e5 <rio_writen+0x40>
  4021bd:	48 89 da             	mov    %rbx,%rdx
  4021c0:	48 89 ee             	mov    %rbp,%rsi
  4021c3:	44 89 e7             	mov    %r12d,%edi
  4021c6:	e8 25 eb ff ff       	callq  400cf0 <write@plt>
  4021cb:	48 85 c0             	test   %rax,%rax
  4021ce:	7f 0f                	jg     4021df <rio_writen+0x3a>
  4021d0:	e8 cb ea ff ff       	callq  400ca0 <__errno_location@plt>
  4021d5:	83 38 04             	cmpl   $0x4,(%rax)
  4021d8:	75 15                	jne    4021ef <rio_writen+0x4a>
  4021da:	b8 00 00 00 00       	mov    $0x0,%eax
  4021df:	48 29 c3             	sub    %rax,%rbx
  4021e2:	48 01 c5             	add    %rax,%rbp
  4021e5:	48 85 db             	test   %rbx,%rbx
  4021e8:	75 d3                	jne    4021bd <rio_writen+0x18>
  4021ea:	4c 89 e8             	mov    %r13,%rax
  4021ed:	eb 07                	jmp    4021f6 <rio_writen+0x51>
  4021ef:	48 c7 c0 ff ff ff ff 	mov    $0xffffffffffffffff,%rax
  4021f6:	48 83 c4 08          	add    $0x8,%rsp
  4021fa:	5b                   	pop    %rbx
  4021fb:	5d                   	pop    %rbp
  4021fc:	41 5c                	pop    %r12
  4021fe:	41 5d                	pop    %r13
  402200:	c3                   	retq   

0000000000402201 <rio_read>:
  402201:	41 55                	push   %r13
  402203:	41 54                	push   %r12
  402205:	55                   	push   %rbp
  402206:	53                   	push   %rbx
  402207:	48 83 ec 08          	sub    $0x8,%rsp
  40220b:	48 89 fb             	mov    %rdi,%rbx
  40220e:	49 89 f5             	mov    %rsi,%r13
  402211:	49 89 d4             	mov    %rdx,%r12
  402214:	eb 2e                	jmp    402244 <rio_read+0x43>
  402216:	48 8d 6b 10          	lea    0x10(%rbx),%rbp
  40221a:	8b 3b                	mov    (%rbx),%edi
  40221c:	ba 00 20 00 00       	mov    $0x2000,%edx
  402221:	48 89 ee             	mov    %rbp,%rsi
  402224:	e8 27 eb ff ff       	callq  400d50 <read@plt>
  402229:	89 43 04             	mov    %eax,0x4(%rbx)
  40222c:	85 c0                	test   %eax,%eax
  40222e:	79 0c                	jns    40223c <rio_read+0x3b>
  402230:	e8 6b ea ff ff       	callq  400ca0 <__errno_location@plt>
  402235:	83 38 04             	cmpl   $0x4,(%rax)
  402238:	74 0a                	je     402244 <rio_read+0x43>
  40223a:	eb 37                	jmp    402273 <rio_read+0x72>
  40223c:	85 c0                	test   %eax,%eax
  40223e:	74 3c                	je     40227c <rio_read+0x7b>
  402240:	48 89 6b 08          	mov    %rbp,0x8(%rbx)
  402244:	8b 6b 04             	mov    0x4(%rbx),%ebp
  402247:	85 ed                	test   %ebp,%ebp
  402249:	7e cb                	jle    402216 <rio_read+0x15>
  40224b:	89 e8                	mov    %ebp,%eax
  40224d:	49 39 c4             	cmp    %rax,%r12
  402250:	77 03                	ja     402255 <rio_read+0x54>
  402252:	44 89 e5             	mov    %r12d,%ebp
  402255:	4c 63 e5             	movslq %ebp,%r12
  402258:	48 8b 73 08          	mov    0x8(%rbx),%rsi
  40225c:	4c 89 e2             	mov    %r12,%rdx
  40225f:	4c 89 ef             	mov    %r13,%rdi
  402262:	e8 59 eb ff ff       	callq  400dc0 <memcpy@plt>
  402267:	4c 01 63 08          	add    %r12,0x8(%rbx)
  40226b:	29 6b 04             	sub    %ebp,0x4(%rbx)
  40226e:	4c 89 e0             	mov    %r12,%rax
  402271:	eb 0e                	jmp    402281 <rio_read+0x80>
  402273:	48 c7 c0 ff ff ff ff 	mov    $0xffffffffffffffff,%rax
  40227a:	eb 05                	jmp    402281 <rio_read+0x80>
  40227c:	b8 00 00 00 00       	mov    $0x0,%eax
  402281:	48 83 c4 08          	add    $0x8,%rsp
  402285:	5b                   	pop    %rbx
  402286:	5d                   	pop    %rbp
  402287:	41 5c                	pop    %r12
  402289:	41 5d                	pop    %r13
  40228b:	c3                   	retq   

000000000040228c <rio_readlineb>:
  40228c:	41 55                	push   %r13
  40228e:	41 54                	push   %r12
  402290:	55                   	push   %rbp
  402291:	53                   	push   %rbx
  402292:	48 83 ec 18          	sub    $0x18,%rsp
  402296:	49 89 fd             	mov    %rdi,%r13
  402299:	48 89 f5             	mov    %rsi,%rbp
  40229c:	49 89 d4             	mov    %rdx,%r12
  40229f:	bb 01 00 00 00       	mov    $0x1,%ebx
  4022a4:	eb 3f                	jmp    4022e5 <rio_readlineb+0x59>
  4022a6:	ba 01 00 00 00       	mov    $0x1,%edx
  4022ab:	48 8d 74 24 0f       	lea    0xf(%rsp),%rsi
  4022b0:	4c 89 ef             	mov    %r13,%rdi
  4022b3:	e8 49 ff ff ff       	callq  402201 <rio_read>
  4022b8:	83 f8 01             	cmp    $0x1,%eax
  4022bb:	75 15                	jne    4022d2 <rio_readlineb+0x46>
  4022bd:	48 8d 45 01          	lea    0x1(%rbp),%rax
  4022c1:	0f b6 54 24 0f       	movzbl 0xf(%rsp),%edx
  4022c6:	88 55 00             	mov    %dl,0x0(%rbp)
  4022c9:	80 7c 24 0f 0a       	cmpb   $0xa,0xf(%rsp)
  4022ce:	75 0e                	jne    4022de <rio_readlineb+0x52>
  4022d0:	eb 1a                	jmp    4022ec <rio_readlineb+0x60>
  4022d2:	85 c0                	test   %eax,%eax
  4022d4:	75 22                	jne    4022f8 <rio_readlineb+0x6c>
  4022d6:	48 83 fb 01          	cmp    $0x1,%rbx
  4022da:	75 13                	jne    4022ef <rio_readlineb+0x63>
  4022dc:	eb 23                	jmp    402301 <rio_readlineb+0x75>
  4022de:	48 83 c3 01          	add    $0x1,%rbx
  4022e2:	48 89 c5             	mov    %rax,%rbp
  4022e5:	4c 39 e3             	cmp    %r12,%rbx
  4022e8:	72 bc                	jb     4022a6 <rio_readlineb+0x1a>
  4022ea:	eb 03                	jmp    4022ef <rio_readlineb+0x63>
  4022ec:	48 89 c5             	mov    %rax,%rbp
  4022ef:	c6 45 00 00          	movb   $0x0,0x0(%rbp)
  4022f3:	48 89 d8             	mov    %rbx,%rax
  4022f6:	eb 0e                	jmp    402306 <rio_readlineb+0x7a>
  4022f8:	48 c7 c0 ff ff ff ff 	mov    $0xffffffffffffffff,%rax
  4022ff:	eb 05                	jmp    402306 <rio_readlineb+0x7a>
  402301:	b8 00 00 00 00       	mov    $0x0,%eax
  402306:	48 83 c4 18          	add    $0x18,%rsp
  40230a:	5b                   	pop    %rbx
  40230b:	5d                   	pop    %rbp
  40230c:	41 5c                	pop    %r12
  40230e:	41 5d                	pop    %r13
  402310:	c3                   	retq   

0000000000402311 <urlencode>:
  402311:	41 54                	push   %r12
  402313:	55                   	push   %rbp
  402314:	53                   	push   %rbx
  402315:	48 83 ec 10          	sub    $0x10,%rsp
  402319:	48 89 fb             	mov    %rdi,%rbx
  40231c:	48 89 f5             	mov    %rsi,%rbp
  40231f:	64 48 8b 04 25 28 00 	mov    %fs:0x28,%rax
  402326:	00 00 
  402328:	48 89 44 24 08       	mov    %rax,0x8(%rsp)
  40232d:	31 c0                	xor    %eax,%eax
  40232f:	48 c7 c1 ff ff ff ff 	mov    $0xffffffffffffffff,%rcx
  402336:	f2 ae                	repnz scas %es:(%rdi),%al
  402338:	48 f7 d1             	not    %rcx
  40233b:	8d 41 ff             	lea    -0x1(%rcx),%eax
  40233e:	e9 aa 00 00 00       	jmpq   4023ed <urlencode+0xdc>
  402343:	44 0f b6 03          	movzbl (%rbx),%r8d
  402347:	41 80 f8 2a          	cmp    $0x2a,%r8b
  40234b:	0f 94 c2             	sete   %dl
  40234e:	41 80 f8 2d          	cmp    $0x2d,%r8b
  402352:	0f 94 c0             	sete   %al
  402355:	08 c2                	or     %al,%dl
  402357:	75 24                	jne    40237d <urlencode+0x6c>
  402359:	41 80 f8 2e          	cmp    $0x2e,%r8b
  40235d:	74 1e                	je     40237d <urlencode+0x6c>
  40235f:	41 80 f8 5f          	cmp    $0x5f,%r8b
  402363:	74 18                	je     40237d <urlencode+0x6c>
  402365:	41 8d 40 d0          	lea    -0x30(%r8),%eax
  402369:	3c 09                	cmp    $0x9,%al
  40236b:	76 10                	jbe    40237d <urlencode+0x6c>
  40236d:	41 8d 40 bf          	lea    -0x41(%r8),%eax
  402371:	3c 19                	cmp    $0x19,%al
  402373:	76 08                	jbe    40237d <urlencode+0x6c>
  402375:	41 8d 40 9f          	lea    -0x61(%r8),%eax
  402379:	3c 19                	cmp    $0x19,%al
  40237b:	77 0a                	ja     402387 <urlencode+0x76>
  40237d:	44 88 45 00          	mov    %r8b,0x0(%rbp)
  402381:	48 8d 6d 01          	lea    0x1(%rbp),%rbp
  402385:	eb 5f                	jmp    4023e6 <urlencode+0xd5>
  402387:	41 80 f8 20          	cmp    $0x20,%r8b
  40238b:	75 0a                	jne    402397 <urlencode+0x86>
  40238d:	c6 45 00 2b          	movb   $0x2b,0x0(%rbp)
  402391:	48 8d 6d 01          	lea    0x1(%rbp),%rbp
  402395:	eb 4f                	jmp    4023e6 <urlencode+0xd5>
  402397:	41 8d 40 e0          	lea    -0x20(%r8),%eax
  40239b:	3c 5f                	cmp    $0x5f,%al
  40239d:	0f 96 c2             	setbe  %dl
  4023a0:	41 80 f8 09          	cmp    $0x9,%r8b
  4023a4:	0f 94 c0             	sete   %al
  4023a7:	08 c2                	or     %al,%dl
  4023a9:	74 50                	je     4023fb <urlencode+0xea>
  4023ab:	45 0f b6 c0          	movzbl %r8b,%r8d
  4023af:	b9 b8 36 40 00       	mov    $0x4036b8,%ecx
  4023b4:	ba 08 00 00 00       	mov    $0x8,%edx
  4023b9:	be 01 00 00 00       	mov    $0x1,%esi
  4023be:	48 89 e7             	mov    %rsp,%rdi
  4023c1:	b8 00 00 00 00       	mov    $0x0,%eax
  4023c6:	e8 d5 ea ff ff       	callq  400ea0 <__sprintf_chk@plt>
  4023cb:	0f b6 04 24          	movzbl (%rsp),%eax
  4023cf:	88 45 00             	mov    %al,0x0(%rbp)
  4023d2:	0f b6 44 24 01       	movzbl 0x1(%rsp),%eax
  4023d7:	88 45 01             	mov    %al,0x1(%rbp)
  4023da:	0f b6 44 24 02       	movzbl 0x2(%rsp),%eax
  4023df:	88 45 02             	mov    %al,0x2(%rbp)
  4023e2:	48 8d 6d 03          	lea    0x3(%rbp),%rbp
  4023e6:	48 83 c3 01          	add    $0x1,%rbx
  4023ea:	44 89 e0             	mov    %r12d,%eax
  4023ed:	44 8d 60 ff          	lea    -0x1(%rax),%r12d
  4023f1:	85 c0                	test   %eax,%eax
  4023f3:	0f 85 4a ff ff ff    	jne    402343 <urlencode+0x32>
  4023f9:	eb 05                	jmp    402400 <urlencode+0xef>
  4023fb:	b8 ff ff ff ff       	mov    $0xffffffff,%eax
  402400:	48 8b 74 24 08       	mov    0x8(%rsp),%rsi
  402405:	64 48 33 34 25 28 00 	xor    %fs:0x28,%rsi
  40240c:	00 00 
  40240e:	74 05                	je     402415 <urlencode+0x104>
  402410:	e8 eb e8 ff ff       	callq  400d00 <__stack_chk_fail@plt>
  402415:	48 83 c4 10          	add    $0x10,%rsp
  402419:	5b                   	pop    %rbx
  40241a:	5d                   	pop    %rbp
  40241b:	41 5c                	pop    %r12
  40241d:	c3                   	retq   

000000000040241e <submitr>:
  40241e:	41 57                	push   %r15
  402420:	41 56                	push   %r14
  402422:	41 55                	push   %r13
  402424:	41 54                	push   %r12
  402426:	55                   	push   %rbp
  402427:	53                   	push   %rbx
  402428:	48 81 ec 58 a0 00 00 	sub    $0xa058,%rsp
  40242f:	49 89 fc             	mov    %rdi,%r12
  402432:	89 74 24 04          	mov    %esi,0x4(%rsp)
  402436:	49 89 d7             	mov    %rdx,%r15
  402439:	49 89 ce             	mov    %rcx,%r14
  40243c:	4c 89 44 24 08       	mov    %r8,0x8(%rsp)
  402441:	4d 89 cd             	mov    %r9,%r13
  402444:	48 8b 9c 24 90 a0 00 	mov    0xa090(%rsp),%rbx
  40244b:	00 
  40244c:	64 48 8b 04 25 28 00 	mov    %fs:0x28,%rax
  402453:	00 00 
  402455:	48 89 84 24 48 a0 00 	mov    %rax,0xa048(%rsp)
  40245c:	00 
  40245d:	31 c0                	xor    %eax,%eax
  40245f:	c7 44 24 1c 00 00 00 	movl   $0x0,0x1c(%rsp)
  402466:	00 
  402467:	ba 00 00 00 00       	mov    $0x0,%edx
  40246c:	be 01 00 00 00       	mov    $0x1,%esi
  402471:	bf 02 00 00 00       	mov    $0x2,%edi
  402476:	e8 35 ea ff ff       	callq  400eb0 <socket@plt>
  40247b:	85 c0                	test   %eax,%eax
  40247d:	79 4e                	jns    4024cd <submitr+0xaf>
  40247f:	48 b8 45 72 72 6f 72 	movabs $0x43203a726f727245,%rax
  402486:	3a 20 43 
  402489:	48 89 03             	mov    %rax,(%rbx)
  40248c:	48 b8 6c 69 65 6e 74 	movabs $0x6e7520746e65696c,%rax
  402493:	20 75 6e 
  402496:	48 89 43 08          	mov    %rax,0x8(%rbx)
  40249a:	48 b8 61 62 6c 65 20 	movabs $0x206f7420656c6261,%rax
  4024a1:	74 6f 20 
  4024a4:	48 89 43 10          	mov    %rax,0x10(%rbx)
  4024a8:	48 b8 63 72 65 61 74 	movabs $0x7320657461657263,%rax
  4024af:	65 20 73 
  4024b2:	48 89 43 18          	mov    %rax,0x18(%rbx)
  4024b6:	c7 43 20 6f 63 6b 65 	movl   $0x656b636f,0x20(%rbx)
  4024bd:	66 c7 43 24 74 00    	movw   $0x74,0x24(%rbx)
  4024c3:	b8 ff ff ff ff       	mov    $0xffffffff,%eax
  4024c8:	e9 88 06 00 00       	jmpq   402b55 <submitr+0x737>
  4024cd:	89 c5                	mov    %eax,%ebp
  4024cf:	4c 89 e7             	mov    %r12,%rdi
  4024d2:	e8 a9 e8 ff ff       	callq  400d80 <gethostbyname@plt>
  4024d7:	48 85 c0             	test   %rax,%rax
  4024da:	75 67                	jne    402543 <submitr+0x125>
  4024dc:	48 b8 45 72 72 6f 72 	movabs $0x44203a726f727245,%rax
  4024e3:	3a 20 44 
  4024e6:	48 89 03             	mov    %rax,(%rbx)
  4024e9:	48 b8 4e 53 20 69 73 	movabs $0x6e7520736920534e,%rax
  4024f0:	20 75 6e 
  4024f3:	48 89 43 08          	mov    %rax,0x8(%rbx)
  4024f7:	48 b8 61 62 6c 65 20 	movabs $0x206f7420656c6261,%rax
  4024fe:	74 6f 20 
  402501:	48 89 43 10          	mov    %rax,0x10(%rbx)
  402505:	48 b8 72 65 73 6f 6c 	movabs $0x2065766c6f736572,%rax
  40250c:	76 65 20 
  40250f:	48 89 43 18          	mov    %rax,0x18(%rbx)
  402513:	48 b8 73 65 72 76 65 	movabs $0x6120726576726573,%rax
  40251a:	72 20 61 
  40251d:	48 89 43 20          	mov    %rax,0x20(%rbx)
  402521:	c7 43 28 64 64 72 65 	movl   $0x65726464,0x28(%rbx)
  402528:	66 c7 43 2c 73 73    	movw   $0x7373,0x2c(%rbx)
  40252e:	c6 43 2e 00          	movb   $0x0,0x2e(%rbx)
  402532:	89 ef                	mov    %ebp,%edi
  402534:	e8 07 e8 ff ff       	callq  400d40 <close@plt>
  402539:	b8 ff ff ff ff       	mov    $0xffffffff,%eax
  40253e:	e9 12 06 00 00       	jmpq   402b55 <submitr+0x737>
  402543:	48 c7 44 24 20 00 00 	movq   $0x0,0x20(%rsp)
  40254a:	00 00 
  40254c:	48 c7 44 24 28 00 00 	movq   $0x0,0x28(%rsp)
  402553:	00 00 
  402555:	66 c7 44 24 20 02 00 	movw   $0x2,0x20(%rsp)
  40255c:	48 63 50 14          	movslq 0x14(%rax),%rdx
  402560:	48 8b 40 18          	mov    0x18(%rax),%rax
  402564:	48 8b 30             	mov    (%rax),%rsi
  402567:	48 8d 7c 24 24       	lea    0x24(%rsp),%rdi
  40256c:	b9 0c 00 00 00       	mov    $0xc,%ecx
  402571:	e8 1a e8 ff ff       	callq  400d90 <__memmove_chk@plt>
  402576:	0f b7 44 24 04       	movzwl 0x4(%rsp),%eax
  40257b:	66 c1 c8 08          	ror    $0x8,%ax
  40257f:	66 89 44 24 22       	mov    %ax,0x22(%rsp)
  402584:	ba 10 00 00 00       	mov    $0x10,%edx
  402589:	48 8d 74 24 20       	lea    0x20(%rsp),%rsi
  40258e:	89 ef                	mov    %ebp,%edi
  402590:	e8 eb e8 ff ff       	callq  400e80 <connect@plt>
  402595:	85 c0                	test   %eax,%eax
  402597:	79 59                	jns    4025f2 <submitr+0x1d4>
  402599:	48 b8 45 72 72 6f 72 	movabs $0x55203a726f727245,%rax
  4025a0:	3a 20 55 
  4025a3:	48 89 03             	mov    %rax,(%rbx)
  4025a6:	48 b8 6e 61 62 6c 65 	movabs $0x6f7420656c62616e,%rax
  4025ad:	20 74 6f 
  4025b0:	48 89 43 08          	mov    %rax,0x8(%rbx)
  4025b4:	48 b8 20 63 6f 6e 6e 	movabs $0x7463656e6e6f6320,%rax
  4025bb:	65 63 74 
  4025be:	48 89 43 10          	mov    %rax,0x10(%rbx)
  4025c2:	48 b8 20 74 6f 20 74 	movabs $0x20656874206f7420,%rax
  4025c9:	68 65 20 
  4025cc:	48 89 43 18          	mov    %rax,0x18(%rbx)
  4025d0:	c7 43 20 73 65 72 76 	movl   $0x76726573,0x20(%rbx)
  4025d7:	66 c7 43 24 65 72    	movw   $0x7265,0x24(%rbx)
  4025dd:	c6 43 26 00          	movb   $0x0,0x26(%rbx)
  4025e1:	89 ef                	mov    %ebp,%edi
  4025e3:	e8 58 e7 ff ff       	callq  400d40 <close@plt>
  4025e8:	b8 ff ff ff ff       	mov    $0xffffffff,%eax
  4025ed:	e9 63 05 00 00       	jmpq   402b55 <submitr+0x737>
  4025f2:	48 c7 c6 ff ff ff ff 	mov    $0xffffffffffffffff,%rsi
  4025f9:	b8 00 00 00 00       	mov    $0x0,%eax
  4025fe:	48 89 f1             	mov    %rsi,%rcx
  402601:	4c 89 ef             	mov    %r13,%rdi
  402604:	f2 ae                	repnz scas %es:(%rdi),%al
  402606:	48 f7 d1             	not    %rcx
  402609:	48 89 ca             	mov    %rcx,%rdx
  40260c:	48 89 f1             	mov    %rsi,%rcx
  40260f:	4c 89 ff             	mov    %r15,%rdi
  402612:	f2 ae                	repnz scas %es:(%rdi),%al
  402614:	48 f7 d1             	not    %rcx
  402617:	49 89 c8             	mov    %rcx,%r8
  40261a:	48 89 f1             	mov    %rsi,%rcx
  40261d:	4c 89 f7             	mov    %r14,%rdi
  402620:	f2 ae                	repnz scas %es:(%rdi),%al
  402622:	48 f7 d1             	not    %rcx
  402625:	4d 8d 44 08 fe       	lea    -0x2(%r8,%rcx,1),%r8
  40262a:	48 89 f1             	mov    %rsi,%rcx
  40262d:	48 8b 7c 24 08       	mov    0x8(%rsp),%rdi
  402632:	f2 ae                	repnz scas %es:(%rdi),%al
  402634:	48 89 c8             	mov    %rcx,%rax
  402637:	48 f7 d0             	not    %rax
  40263a:	49 8d 4c 00 ff       	lea    -0x1(%r8,%rax,1),%rcx
  40263f:	48 8d 44 52 fd       	lea    -0x3(%rdx,%rdx,2),%rax
  402644:	48 8d 84 01 80 00 00 	lea    0x80(%rcx,%rax,1),%rax
  40264b:	00 
  40264c:	48 3d 00 20 00 00    	cmp    $0x2000,%rax
  402652:	76 72                	jbe    4026c6 <submitr+0x2a8>
  402654:	48 b8 45 72 72 6f 72 	movabs $0x52203a726f727245,%rax
  40265b:	3a 20 52 
  40265e:	48 89 03             	mov    %rax,(%rbx)
  402661:	48 b8 65 73 75 6c 74 	movabs $0x747320746c757365,%rax
  402668:	20 73 74 
  40266b:	48 89 43 08          	mov    %rax,0x8(%rbx)
  40266f:	48 b8 72 69 6e 67 20 	movabs $0x6f6f7420676e6972,%rax
  402676:	74 6f 6f 
  402679:	48 89 43 10          	mov    %rax,0x10(%rbx)
  40267d:	48 b8 20 6c 61 72 67 	movabs $0x202e656772616c20,%rax
  402684:	65 2e 20 
  402687:	48 89 43 18          	mov    %rax,0x18(%rbx)
  40268b:	48 b8 49 6e 63 72 65 	movabs $0x6573616572636e49,%rax
  402692:	61 73 65 
  402695:	48 89 43 20          	mov    %rax,0x20(%rbx)
  402699:	48 b8 20 53 55 42 4d 	movabs $0x5254494d42555320,%rax
  4026a0:	49 54 52 
  4026a3:	48 89 43 28          	mov    %rax,0x28(%rbx)
  4026a7:	48 b8 5f 4d 41 58 42 	movabs $0x46554258414d5f,%rax
  4026ae:	55 46 00 
  4026b1:	48 89 43 30          	mov    %rax,0x30(%rbx)
  4026b5:	89 ef                	mov    %ebp,%edi
  4026b7:	e8 84 e6 ff ff       	callq  400d40 <close@plt>
  4026bc:	b8 ff ff ff ff       	mov    $0xffffffff,%eax
  4026c1:	e9 8f 04 00 00       	jmpq   402b55 <submitr+0x737>
  4026c6:	48 8d b4 24 30 20 00 	lea    0x2030(%rsp),%rsi
  4026cd:	00 
  4026ce:	b9 00 04 00 00       	mov    $0x400,%ecx
  4026d3:	b8 00 00 00 00       	mov    $0x0,%eax
  4026d8:	48 89 f7             	mov    %rsi,%rdi
  4026db:	f3 48 ab             	rep stos %rax,%es:(%rdi)
  4026de:	4c 89 ef             	mov    %r13,%rdi
  4026e1:	e8 2b fc ff ff       	callq  402311 <urlencode>
  4026e6:	85 c0                	test   %eax,%eax
  4026e8:	0f 89 8a 00 00 00    	jns    402778 <submitr+0x35a>
  4026ee:	48 b8 45 72 72 6f 72 	movabs $0x52203a726f727245,%rax
  4026f5:	3a 20 52 
  4026f8:	48 89 03             	mov    %rax,(%rbx)
  4026fb:	48 b8 65 73 75 6c 74 	movabs $0x747320746c757365,%rax
  402702:	20 73 74 
  402705:	48 89 43 08          	mov    %rax,0x8(%rbx)
  402709:	48 b8 72 69 6e 67 20 	movabs $0x6e6f6320676e6972,%rax
  402710:	63 6f 6e 
  402713:	48 89 43 10          	mov    %rax,0x10(%rbx)
  402717:	48 b8 74 61 69 6e 73 	movabs $0x6e6120736e696174,%rax
  40271e:	20 61 6e 
  402721:	48 89 43 18          	mov    %rax,0x18(%rbx)
  402725:	48 b8 20 69 6c 6c 65 	movabs $0x6c6167656c6c6920,%rax
  40272c:	67 61 6c 
  40272f:	48 89 43 20          	mov    %rax,0x20(%rbx)
  402733:	48 b8 20 6f 72 20 75 	movabs $0x72706e7520726f20,%rax
  40273a:	6e 70 72 
  40273d:	48 89 43 28          	mov    %rax,0x28(%rbx)
  402741:	48 b8 69 6e 74 61 62 	movabs $0x20656c6261746e69,%rax
  402748:	6c 65 20 
  40274b:	48 89 43 30          	mov    %rax,0x30(%rbx)
  40274f:	48 b8 63 68 61 72 61 	movabs $0x6574636172616863,%rax
  402756:	63 74 65 
  402759:	48 89 43 38          	mov    %rax,0x38(%rbx)
  40275d:	66 c7 43 40 72 2e    	movw   $0x2e72,0x40(%rbx)
  402763:	c6 43 42 00          	movb   $0x0,0x42(%rbx)
  402767:	89 ef                	mov    %ebp,%edi
  402769:	e8 d2 e5 ff ff       	callq  400d40 <close@plt>
  40276e:	b8 ff ff ff ff       	mov    $0xffffffff,%eax
  402773:	e9 dd 03 00 00       	jmpq   402b55 <submitr+0x737>
  402778:	4c 8d 6c 24 30       	lea    0x30(%rsp),%r13
  40277d:	41 54                	push   %r12
  40277f:	48 8d 84 24 38 20 00 	lea    0x2038(%rsp),%rax
  402786:	00 
  402787:	50                   	push   %rax
  402788:	4d 89 f9             	mov    %r15,%r9
  40278b:	4d 89 f0             	mov    %r14,%r8
  40278e:	b9 48 36 40 00       	mov    $0x403648,%ecx
  402793:	ba 00 20 00 00       	mov    $0x2000,%edx
  402798:	be 01 00 00 00       	mov    $0x1,%esi
  40279d:	4c 89 ef             	mov    %r13,%rdi
  4027a0:	b8 00 00 00 00       	mov    $0x0,%eax
  4027a5:	e8 f6 e6 ff ff       	callq  400ea0 <__sprintf_chk@plt>
  4027aa:	b8 00 00 00 00       	mov    $0x0,%eax
  4027af:	48 c7 c1 ff ff ff ff 	mov    $0xffffffffffffffff,%rcx
  4027b6:	4c 89 ef             	mov    %r13,%rdi
  4027b9:	f2 ae                	repnz scas %es:(%rdi),%al
  4027bb:	48 f7 d1             	not    %rcx
  4027be:	48 8d 51 ff          	lea    -0x1(%rcx),%rdx
  4027c2:	4c 89 ee             	mov    %r13,%rsi
  4027c5:	89 ef                	mov    %ebp,%edi
  4027c7:	e8 d9 f9 ff ff       	callq  4021a5 <rio_writen>
  4027cc:	48 83 c4 10          	add    $0x10,%rsp
  4027d0:	48 85 c0             	test   %rax,%rax
  4027d3:	79 6e                	jns    402843 <submitr+0x425>
  4027d5:	48 b8 45 72 72 6f 72 	movabs $0x43203a726f727245,%rax
  4027dc:	3a 20 43 
  4027df:	48 89 03             	mov    %rax,(%rbx)
  4027e2:	48 b8 6c 69 65 6e 74 	movabs $0x6e7520746e65696c,%rax
  4027e9:	20 75 6e 
  4027ec:	48 89 43 08          	mov    %rax,0x8(%rbx)
  4027f0:	48 b8 61 62 6c 65 20 	movabs $0x206f7420656c6261,%rax
  4027f7:	74 6f 20 
  4027fa:	48 89 43 10          	mov    %rax,0x10(%rbx)
  4027fe:	48 b8 77 72 69 74 65 	movabs $0x6f74206574697277,%rax
  402805:	20 74 6f 
  402808:	48 89 43 18          	mov    %rax,0x18(%rbx)
  40280c:	48 b8 20 74 68 65 20 	movabs $0x7365722065687420,%rax
  402813:	72 65 73 
  402816:	48 89 43 20          	mov    %rax,0x20(%rbx)
  40281a:	48 b8 75 6c 74 20 73 	movabs $0x7672657320746c75,%rax
  402821:	65 72 76 
  402824:	48 89 43 28          	mov    %rax,0x28(%rbx)
  402828:	66 c7 43 30 65 72    	movw   $0x7265,0x30(%rbx)
  40282e:	c6 43 32 00          	movb   $0x0,0x32(%rbx)
  402832:	89 ef                	mov    %ebp,%edi
  402834:	e8 07 e5 ff ff       	callq  400d40 <close@plt>
  402839:	b8 ff ff ff ff       	mov    $0xffffffff,%eax
  40283e:	e9 12 03 00 00       	jmpq   402b55 <submitr+0x737>
  402843:	89 ee                	mov    %ebp,%esi
  402845:	48 8d bc 24 30 80 00 	lea    0x8030(%rsp),%rdi
  40284c:	00 
  40284d:	e8 13 f9 ff ff       	callq  402165 <rio_readinitb>
  402852:	ba 00 20 00 00       	mov    $0x2000,%edx
  402857:	48 8d 74 24 30       	lea    0x30(%rsp),%rsi
  40285c:	48 8d bc 24 30 80 00 	lea    0x8030(%rsp),%rdi
  402863:	00 
  402864:	e8 23 fa ff ff       	callq  40228c <rio_readlineb>
  402869:	48 85 c0             	test   %rax,%rax
  40286c:	7f 7d                	jg     4028eb <submitr+0x4cd>
  40286e:	48 b8 45 72 72 6f 72 	movabs $0x43203a726f727245,%rax
  402875:	3a 20 43 
  402878:	48 89 03             	mov    %rax,(%rbx)
  40287b:	48 b8 6c 69 65 6e 74 	movabs $0x6e7520746e65696c,%rax
  402882:	20 75 6e 
  402885:	48 89 43 08          	mov    %rax,0x8(%rbx)
  402889:	48 b8 61 62 6c 65 20 	movabs $0x206f7420656c6261,%rax
  402890:	74 6f 20 
  402893:	48 89 43 10          	mov    %rax,0x10(%rbx)
  402897:	48 b8 72 65 61 64 20 	movabs $0x7269662064616572,%rax
  40289e:	66 69 72 
  4028a1:	48 89 43 18          	mov    %rax,0x18(%rbx)
  4028a5:	48 b8 73 74 20 68 65 	movabs $0x6564616568207473,%rax
  4028ac:	61 64 65 
  4028af:	48 89 43 20          	mov    %rax,0x20(%rbx)
  4028b3:	48 b8 72 20 66 72 6f 	movabs $0x72206d6f72662072,%rax
  4028ba:	6d 20 72 
  4028bd:	48 89 43 28          	mov    %rax,0x28(%rbx)
  4028c1:	48 b8 65 73 75 6c 74 	movabs $0x657320746c757365,%rax
  4028c8:	20 73 65 
  4028cb:	48 89 43 30          	mov    %rax,0x30(%rbx)
  4028cf:	c7 43 38 72 76 65 72 	movl   $0x72657672,0x38(%rbx)
  4028d6:	c6 43 3c 00          	movb   $0x0,0x3c(%rbx)
  4028da:	89 ef                	mov    %ebp,%edi
  4028dc:	e8 5f e4 ff ff       	callq  400d40 <close@plt>
  4028e1:	b8 ff ff ff ff       	mov    $0xffffffff,%eax
  4028e6:	e9 6a 02 00 00       	jmpq   402b55 <submitr+0x737>
  4028eb:	4c 8d 84 24 30 60 00 	lea    0x6030(%rsp),%r8
  4028f2:	00 
  4028f3:	48 8d 4c 24 1c       	lea    0x1c(%rsp),%rcx
  4028f8:	48 8d 94 24 30 40 00 	lea    0x4030(%rsp),%rdx
  4028ff:	00 
  402900:	be bf 36 40 00       	mov    $0x4036bf,%esi
  402905:	48 8d 7c 24 30       	lea    0x30(%rsp),%rdi
  40290a:	b8 00 00 00 00       	mov    $0x0,%eax
  40290f:	e8 ec e4 ff ff       	callq  400e00 <__isoc99_sscanf@plt>
  402914:	e9 95 00 00 00       	jmpq   4029ae <submitr+0x590>
  402919:	ba 00 20 00 00       	mov    $0x2000,%edx
  40291e:	48 8d 74 24 30       	lea    0x30(%rsp),%rsi
  402923:	48 8d bc 24 30 80 00 	lea    0x8030(%rsp),%rdi
  40292a:	00 
  40292b:	e8 5c f9 ff ff       	callq  40228c <rio_readlineb>
  402930:	48 85 c0             	test   %rax,%rax
  402933:	7f 79                	jg     4029ae <submitr+0x590>
  402935:	48 b8 45 72 72 6f 72 	movabs $0x43203a726f727245,%rax
  40293c:	3a 20 43 
  40293f:	48 89 03             	mov    %rax,(%rbx)
  402942:	48 b8 6c 69 65 6e 74 	movabs $0x6e7520746e65696c,%rax
  402949:	20 75 6e 
  40294c:	48 89 43 08          	mov    %rax,0x8(%rbx)
  402950:	48 b8 61 62 6c 65 20 	movabs $0x206f7420656c6261,%rax
  402957:	74 6f 20 
  40295a:	48 89 43 10          	mov    %rax,0x10(%rbx)
  40295e:	48 b8 72 65 61 64 20 	movabs $0x6165682064616572,%rax
  402965:	68 65 61 
  402968:	48 89 43 18          	mov    %rax,0x18(%rbx)
  40296c:	48 b8 64 65 72 73 20 	movabs $0x6f72662073726564,%rax
  402973:	66 72 6f 
  402976:	48 89 43 20          	mov    %rax,0x20(%rbx)
  40297a:	48 b8 6d 20 74 68 65 	movabs $0x657220656874206d,%rax
  402981:	20 72 65 
  402984:	48 89 43 28          	mov    %rax,0x28(%rbx)
  402988:	48 b8 73 75 6c 74 20 	movabs $0x72657320746c7573,%rax
  40298f:	73 65 72 
  402992:	48 89 43 30          	mov    %rax,0x30(%rbx)
  402996:	c7 43 38 76 65 72 00 	movl   $0x726576,0x38(%rbx)
  40299d:	89 ef                	mov    %ebp,%edi
  40299f:	e8 9c e3 ff ff       	callq  400d40 <close@plt>
  4029a4:	b8 ff ff ff ff       	mov    $0xffffffff,%eax
  4029a9:	e9 a7 01 00 00       	jmpq   402b55 <submitr+0x737>
  4029ae:	0f b6 54 24 30       	movzbl 0x30(%rsp),%edx
  4029b3:	b8 0d 00 00 00       	mov    $0xd,%eax
  4029b8:	29 d0                	sub    %edx,%eax
  4029ba:	75 15                	jne    4029d1 <submitr+0x5b3>
  4029bc:	0f b6 54 24 31       	movzbl 0x31(%rsp),%edx
  4029c1:	b8 0a 00 00 00       	mov    $0xa,%eax
  4029c6:	29 d0                	sub    %edx,%eax
  4029c8:	75 07                	jne    4029d1 <submitr+0x5b3>
  4029ca:	0f b6 44 24 32       	movzbl 0x32(%rsp),%eax
  4029cf:	f7 d8                	neg    %eax
  4029d1:	85 c0                	test   %eax,%eax
  4029d3:	0f 85 40 ff ff ff    	jne    402919 <submitr+0x4fb>
  4029d9:	ba 00 20 00 00       	mov    $0x2000,%edx
  4029de:	48 8d 74 24 30       	lea    0x30(%rsp),%rsi
  4029e3:	48 8d bc 24 30 80 00 	lea    0x8030(%rsp),%rdi
  4029ea:	00 
  4029eb:	e8 9c f8 ff ff       	callq  40228c <rio_readlineb>
  4029f0:	48 85 c0             	test   %rax,%rax
  4029f3:	0f 8f 83 00 00 00    	jg     402a7c <submitr+0x65e>
  4029f9:	48 b8 45 72 72 6f 72 	movabs $0x43203a726f727245,%rax
  402a00:	3a 20 43 
  402a03:	48 89 03             	mov    %rax,(%rbx)
  402a06:	48 b8 6c 69 65 6e 74 	movabs $0x6e7520746e65696c,%rax
  402a0d:	20 75 6e 
  402a10:	48 89 43 08          	mov    %rax,0x8(%rbx)
  402a14:	48 b8 61 62 6c 65 20 	movabs $0x206f7420656c6261,%rax
  402a1b:	74 6f 20 
  402a1e:	48 89 43 10          	mov    %rax,0x10(%rbx)
  402a22:	48 b8 72 65 61 64 20 	movabs $0x6174732064616572,%rax
  402a29:	73 74 61 
  402a2c:	48 89 43 18          	mov    %rax,0x18(%rbx)
  402a30:	48 b8 74 75 73 20 6d 	movabs $0x7373656d20737574,%rax
  402a37:	65 73 73 
  402a3a:	48 89 43 20          	mov    %rax,0x20(%rbx)
  402a3e:	48 b8 61 67 65 20 66 	movabs $0x6d6f726620656761,%rax
  402a45:	72 6f 6d 
  402a48:	48 89 43 28          	mov    %rax,0x28(%rbx)
  402a4c:	48 b8 20 72 65 73 75 	movabs $0x20746c7573657220,%rax
  402a53:	6c 74 20 
  402a56:	48 89 43 30          	mov    %rax,0x30(%rbx)
  402a5a:	c7 43 38 73 65 72 76 	movl   $0x76726573,0x38(%rbx)
  402a61:	66 c7 43 3c 65 72    	movw   $0x7265,0x3c(%rbx)
  402a67:	c6 43 3e 00          	movb   $0x0,0x3e(%rbx)
  402a6b:	89 ef                	mov    %ebp,%edi
  402a6d:	e8 ce e2 ff ff       	callq  400d40 <close@plt>
  402a72:	b8 ff ff ff ff       	mov    $0xffffffff,%eax
  402a77:	e9 d9 00 00 00       	jmpq   402b55 <submitr+0x737>
  402a7c:	44 8b 44 24 1c       	mov    0x1c(%rsp),%r8d
  402a81:	41 81 f8 c8 00 00 00 	cmp    $0xc8,%r8d
  402a88:	74 37                	je     402ac1 <submitr+0x6a3>
  402a8a:	4c 8d 8c 24 30 60 00 	lea    0x6030(%rsp),%r9
  402a91:	00 
  402a92:	b9 88 36 40 00       	mov    $0x403688,%ecx
  402a97:	48 c7 c2 ff ff ff ff 	mov    $0xffffffffffffffff,%rdx
  402a9e:	be 01 00 00 00       	mov    $0x1,%esi
  402aa3:	48 89 df             	mov    %rbx,%rdi
  402aa6:	b8 00 00 00 00       	mov    $0x0,%eax
  402aab:	e8 f0 e3 ff ff       	callq  400ea0 <__sprintf_chk@plt>
  402ab0:	89 ef                	mov    %ebp,%edi
  402ab2:	e8 89 e2 ff ff       	callq  400d40 <close@plt>
  402ab7:	b8 ff ff ff ff       	mov    $0xffffffff,%eax
  402abc:	e9 94 00 00 00       	jmpq   402b55 <submitr+0x737>
  402ac1:	48 8d 74 24 30       	lea    0x30(%rsp),%rsi
  402ac6:	48 89 df             	mov    %rbx,%rdi
  402ac9:	e8 02 e2 ff ff       	callq  400cd0 <strcpy@plt>
  402ace:	89 ef                	mov    %ebp,%edi
  402ad0:	e8 6b e2 ff ff       	callq  400d40 <close@plt>
  402ad5:	0f b6 03             	movzbl (%rbx),%eax
  402ad8:	ba 4f 00 00 00       	mov    $0x4f,%edx
  402add:	29 c2                	sub    %eax,%edx
  402adf:	75 22                	jne    402b03 <submitr+0x6e5>
  402ae1:	0f b6 4b 01          	movzbl 0x1(%rbx),%ecx
  402ae5:	b8 4b 00 00 00       	mov    $0x4b,%eax
  402aea:	29 c8                	sub    %ecx,%eax
  402aec:	75 17                	jne    402b05 <submitr+0x6e7>
  402aee:	0f b6 4b 02          	movzbl 0x2(%rbx),%ecx
  402af2:	b8 0a 00 00 00       	mov    $0xa,%eax
  402af7:	29 c8                	sub    %ecx,%eax
  402af9:	75 0a                	jne    402b05 <submitr+0x6e7>
  402afb:	0f b6 43 03          	movzbl 0x3(%rbx),%eax
  402aff:	f7 d8                	neg    %eax
  402b01:	eb 02                	jmp    402b05 <submitr+0x6e7>
  402b03:	89 d0                	mov    %edx,%eax
  402b05:	85 c0                	test   %eax,%eax
  402b07:	74 40                	je     402b49 <submitr+0x72b>
  402b09:	bf d0 36 40 00       	mov    $0x4036d0,%edi
  402b0e:	b9 05 00 00 00       	mov    $0x5,%ecx
  402b13:	48 89 de             	mov    %rbx,%rsi
  402b16:	f3 a6                	repz cmpsb %es:(%rdi),%ds:(%rsi)
  402b18:	0f 97 c0             	seta   %al
  402b1b:	0f 92 c1             	setb   %cl
  402b1e:	29 c8                	sub    %ecx,%eax
  402b20:	0f be c0             	movsbl %al,%eax
  402b23:	85 c0                	test   %eax,%eax
  402b25:	74 2e                	je     402b55 <submitr+0x737>
  402b27:	85 d2                	test   %edx,%edx
  402b29:	75 13                	jne    402b3e <submitr+0x720>
  402b2b:	0f b6 43 01          	movzbl 0x1(%rbx),%eax
  402b2f:	ba 4b 00 00 00       	mov    $0x4b,%edx
  402b34:	29 c2                	sub    %eax,%edx
  402b36:	75 06                	jne    402b3e <submitr+0x720>
  402b38:	0f b6 53 02          	movzbl 0x2(%rbx),%edx
  402b3c:	f7 da                	neg    %edx
  402b3e:	85 d2                	test   %edx,%edx
  402b40:	75 0e                	jne    402b50 <submitr+0x732>
  402b42:	b8 00 00 00 00       	mov    $0x0,%eax
  402b47:	eb 0c                	jmp    402b55 <submitr+0x737>
  402b49:	b8 00 00 00 00       	mov    $0x0,%eax
  402b4e:	eb 05                	jmp    402b55 <submitr+0x737>
  402b50:	b8 ff ff ff ff       	mov    $0xffffffff,%eax
  402b55:	48 8b 9c 24 48 a0 00 	mov    0xa048(%rsp),%rbx
  402b5c:	00 
  402b5d:	64 48 33 1c 25 28 00 	xor    %fs:0x28,%rbx
  402b64:	00 00 
  402b66:	74 05                	je     402b6d <submitr+0x74f>
  402b68:	e8 93 e1 ff ff       	callq  400d00 <__stack_chk_fail@plt>
  402b6d:	48 81 c4 58 a0 00 00 	add    $0xa058,%rsp
  402b74:	5b                   	pop    %rbx
  402b75:	5d                   	pop    %rbp
  402b76:	41 5c                	pop    %r12
  402b78:	41 5d                	pop    %r13
  402b7a:	41 5e                	pop    %r14
  402b7c:	41 5f                	pop    %r15
  402b7e:	c3                   	retq   

0000000000402b7f <init_timeout>:
  402b7f:	85 ff                	test   %edi,%edi
  402b81:	74 23                	je     402ba6 <init_timeout+0x27>
  402b83:	53                   	push   %rbx
  402b84:	89 fb                	mov    %edi,%ebx
  402b86:	85 ff                	test   %edi,%edi
  402b88:	79 05                	jns    402b8f <init_timeout+0x10>
  402b8a:	bb 00 00 00 00       	mov    $0x0,%ebx
  402b8f:	be 77 21 40 00       	mov    $0x402177,%esi
  402b94:	bf 0e 00 00 00       	mov    $0xe,%edi
  402b99:	e8 d2 e1 ff ff       	callq  400d70 <signal@plt>
  402b9e:	89 df                	mov    %ebx,%edi
  402ba0:	e8 8b e1 ff ff       	callq  400d30 <alarm@plt>
  402ba5:	5b                   	pop    %rbx
  402ba6:	f3 c3                	repz retq 

0000000000402ba8 <init_driver>:
  402ba8:	55                   	push   %rbp
  402ba9:	53                   	push   %rbx
  402baa:	48 83 ec 28          	sub    $0x28,%rsp
  402bae:	48 89 fd             	mov    %rdi,%rbp
  402bb1:	64 48 8b 04 25 28 00 	mov    %fs:0x28,%rax
  402bb8:	00 00 
  402bba:	48 89 44 24 18       	mov    %rax,0x18(%rsp)
  402bbf:	31 c0                	xor    %eax,%eax
  402bc1:	be 01 00 00 00       	mov    $0x1,%esi
  402bc6:	bf 0d 00 00 00       	mov    $0xd,%edi
  402bcb:	e8 a0 e1 ff ff       	callq  400d70 <signal@plt>
  402bd0:	be 01 00 00 00       	mov    $0x1,%esi
  402bd5:	bf 1d 00 00 00       	mov    $0x1d,%edi
  402bda:	e8 91 e1 ff ff       	callq  400d70 <signal@plt>
  402bdf:	be 01 00 00 00       	mov    $0x1,%esi
  402be4:	bf 1d 00 00 00       	mov    $0x1d,%edi
  402be9:	e8 82 e1 ff ff       	callq  400d70 <signal@plt>
  402bee:	ba 00 00 00 00       	mov    $0x0,%edx
  402bf3:	be 01 00 00 00       	mov    $0x1,%esi
  402bf8:	bf 02 00 00 00       	mov    $0x2,%edi
  402bfd:	e8 ae e2 ff ff       	callq  400eb0 <socket@plt>
  402c02:	85 c0                	test   %eax,%eax
  402c04:	79 4f                	jns    402c55 <init_driver+0xad>
  402c06:	48 b8 45 72 72 6f 72 	movabs $0x43203a726f727245,%rax
  402c0d:	3a 20 43 
  402c10:	48 89 45 00          	mov    %rax,0x0(%rbp)
  402c14:	48 b8 6c 69 65 6e 74 	movabs $0x6e7520746e65696c,%rax
  402c1b:	20 75 6e 
  402c1e:	48 89 45 08          	mov    %rax,0x8(%rbp)
  402c22:	48 b8 61 62 6c 65 20 	movabs $0x206f7420656c6261,%rax
  402c29:	74 6f 20 
  402c2c:	48 89 45 10          	mov    %rax,0x10(%rbp)
  402c30:	48 b8 63 72 65 61 74 	movabs $0x7320657461657263,%rax
  402c37:	65 20 73 
  402c3a:	48 89 45 18          	mov    %rax,0x18(%rbp)
  402c3e:	c7 45 20 6f 63 6b 65 	movl   $0x656b636f,0x20(%rbp)
  402c45:	66 c7 45 24 74 00    	movw   $0x74,0x24(%rbp)
  402c4b:	b8 ff ff ff ff       	mov    $0xffffffff,%eax
  402c50:	e9 2a 01 00 00       	jmpq   402d7f <init_driver+0x1d7>
  402c55:	89 c3                	mov    %eax,%ebx
  402c57:	bf d5 36 40 00       	mov    $0x4036d5,%edi
  402c5c:	e8 1f e1 ff ff       	callq  400d80 <gethostbyname@plt>
  402c61:	48 85 c0             	test   %rax,%rax
  402c64:	75 68                	jne    402cce <init_driver+0x126>
  402c66:	48 b8 45 72 72 6f 72 	movabs $0x44203a726f727245,%rax
  402c6d:	3a 20 44 
  402c70:	48 89 45 00          	mov    %rax,0x0(%rbp)
  402c74:	48 b8 4e 53 20 69 73 	movabs $0x6e7520736920534e,%rax
  402c7b:	20 75 6e 
  402c7e:	48 89 45 08          	mov    %rax,0x8(%rbp)
  402c82:	48 b8 61 62 6c 65 20 	movabs $0x206f7420656c6261,%rax
  402c89:	74 6f 20 
  402c8c:	48 89 45 10          	mov    %rax,0x10(%rbp)
  402c90:	48 b8 72 65 73 6f 6c 	movabs $0x2065766c6f736572,%rax
  402c97:	76 65 20 
  402c9a:	48 89 45 18          	mov    %rax,0x18(%rbp)
  402c9e:	48 b8 73 65 72 76 65 	movabs $0x6120726576726573,%rax
  402ca5:	72 20 61 
  402ca8:	48 89 45 20          	mov    %rax,0x20(%rbp)
  402cac:	c7 45 28 64 64 72 65 	movl   $0x65726464,0x28(%rbp)
  402cb3:	66 c7 45 2c 73 73    	movw   $0x7373,0x2c(%rbp)
  402cb9:	c6 45 2e 00          	movb   $0x0,0x2e(%rbp)
  402cbd:	89 df                	mov    %ebx,%edi
  402cbf:	e8 7c e0 ff ff       	callq  400d40 <close@plt>
  402cc4:	b8 ff ff ff ff       	mov    $0xffffffff,%eax
  402cc9:	e9 b1 00 00 00       	jmpq   402d7f <init_driver+0x1d7>
  402cce:	48 c7 04 24 00 00 00 	movq   $0x0,(%rsp)
  402cd5:	00 
  402cd6:	48 c7 44 24 08 00 00 	movq   $0x0,0x8(%rsp)
  402cdd:	00 00 
  402cdf:	66 c7 04 24 02 00    	movw   $0x2,(%rsp)
  402ce5:	48 63 50 14          	movslq 0x14(%rax),%rdx
  402ce9:	48 8b 40 18          	mov    0x18(%rax),%rax
  402ced:	48 8b 30             	mov    (%rax),%rsi
  402cf0:	48 8d 7c 24 04       	lea    0x4(%rsp),%rdi
  402cf5:	b9 0c 00 00 00       	mov    $0xc,%ecx
  402cfa:	e8 91 e0 ff ff       	callq  400d90 <__memmove_chk@plt>
  402cff:	66 c7 44 24 02 3c 9a 	movw   $0x9a3c,0x2(%rsp)
  402d06:	ba 10 00 00 00       	mov    $0x10,%edx
  402d0b:	48 89 e6             	mov    %rsp,%rsi
  402d0e:	89 df                	mov    %ebx,%edi
  402d10:	e8 6b e1 ff ff       	callq  400e80 <connect@plt>
  402d15:	85 c0                	test   %eax,%eax
  402d17:	79 50                	jns    402d69 <init_driver+0x1c1>
  402d19:	48 b8 45 72 72 6f 72 	movabs $0x55203a726f727245,%rax
  402d20:	3a 20 55 
  402d23:	48 89 45 00          	mov    %rax,0x0(%rbp)
  402d27:	48 b8 6e 61 62 6c 65 	movabs $0x6f7420656c62616e,%rax
  402d2e:	20 74 6f 
  402d31:	48 89 45 08          	mov    %rax,0x8(%rbp)
  402d35:	48 b8 20 63 6f 6e 6e 	movabs $0x7463656e6e6f6320,%rax
  402d3c:	65 63 74 
  402d3f:	48 89 45 10          	mov    %rax,0x10(%rbp)
  402d43:	48 b8 20 74 6f 20 73 	movabs $0x76726573206f7420,%rax
  402d4a:	65 72 76 
  402d4d:	48 89 45 18          	mov    %rax,0x18(%rbp)
  402d51:	66 c7 45 20 65 72    	movw   $0x7265,0x20(%rbp)
  402d57:	c6 45 22 00          	movb   $0x0,0x22(%rbp)
  402d5b:	89 df                	mov    %ebx,%edi
  402d5d:	e8 de df ff ff       	callq  400d40 <close@plt>
  402d62:	b8 ff ff ff ff       	mov    $0xffffffff,%eax
  402d67:	eb 16                	jmp    402d7f <init_driver+0x1d7>
  402d69:	89 df                	mov    %ebx,%edi
  402d6b:	e8 d0 df ff ff       	callq  400d40 <close@plt>
  402d70:	66 c7 45 00 4f 4b    	movw   $0x4b4f,0x0(%rbp)
  402d76:	c6 45 02 00          	movb   $0x0,0x2(%rbp)
  402d7a:	b8 00 00 00 00       	mov    $0x0,%eax
  402d7f:	48 8b 4c 24 18       	mov    0x18(%rsp),%rcx
  402d84:	64 48 33 0c 25 28 00 	xor    %fs:0x28,%rcx
  402d8b:	00 00 
  402d8d:	74 05                	je     402d94 <init_driver+0x1ec>
  402d8f:	e8 6c df ff ff       	callq  400d00 <__stack_chk_fail@plt>
  402d94:	48 83 c4 28          	add    $0x28,%rsp
  402d98:	5b                   	pop    %rbx
  402d99:	5d                   	pop    %rbp
  402d9a:	c3                   	retq   

0000000000402d9b <driver_post>:
  402d9b:	53                   	push   %rbx
  402d9c:	4c 89 cb             	mov    %r9,%rbx
  402d9f:	45 85 c0             	test   %r8d,%r8d
  402da2:	74 27                	je     402dcb <driver_post+0x30>
  402da4:	48 89 ca             	mov    %rcx,%rdx
  402da7:	be e5 36 40 00       	mov    $0x4036e5,%esi
  402dac:	bf 01 00 00 00       	mov    $0x1,%edi
  402db1:	b8 00 00 00 00       	mov    $0x0,%eax
  402db6:	e8 65 e0 ff ff       	callq  400e20 <__printf_chk@plt>
  402dbb:	66 c7 03 4f 4b       	movw   $0x4b4f,(%rbx)
  402dc0:	c6 43 02 00          	movb   $0x0,0x2(%rbx)
  402dc4:	b8 00 00 00 00       	mov    $0x0,%eax
  402dc9:	eb 3f                	jmp    402e0a <driver_post+0x6f>
  402dcb:	48 85 ff             	test   %rdi,%rdi
  402dce:	74 2c                	je     402dfc <driver_post+0x61>
  402dd0:	80 3f 00             	cmpb   $0x0,(%rdi)
  402dd3:	74 27                	je     402dfc <driver_post+0x61>
  402dd5:	48 83 ec 08          	sub    $0x8,%rsp
  402dd9:	41 51                	push   %r9
  402ddb:	49 89 c9             	mov    %rcx,%r9
  402dde:	49 89 d0             	mov    %rdx,%r8
  402de1:	48 89 f9             	mov    %rdi,%rcx
  402de4:	48 89 f2             	mov    %rsi,%rdx
  402de7:	be 9a 3c 00 00       	mov    $0x3c9a,%esi
  402dec:	bf d5 36 40 00       	mov    $0x4036d5,%edi
  402df1:	e8 28 f6 ff ff       	callq  40241e <submitr>
  402df6:	48 83 c4 10          	add    $0x10,%rsp
  402dfa:	eb 0e                	jmp    402e0a <driver_post+0x6f>
  402dfc:	66 c7 03 4f 4b       	movw   $0x4b4f,(%rbx)
  402e01:	c6 43 02 00          	movb   $0x0,0x2(%rbx)
  402e05:	b8 00 00 00 00       	mov    $0x0,%eax
  402e0a:	5b                   	pop    %rbx
  402e0b:	c3                   	retq   

0000000000402e0c <check>:
  402e0c:	89 f8                	mov    %edi,%eax
  402e0e:	c1 e8 1c             	shr    $0x1c,%eax
  402e11:	85 c0                	test   %eax,%eax
  402e13:	74 1d                	je     402e32 <check+0x26>
  402e15:	b9 00 00 00 00       	mov    $0x0,%ecx
  402e1a:	eb 0b                	jmp    402e27 <check+0x1b>
  402e1c:	89 f8                	mov    %edi,%eax
  402e1e:	d3 e8                	shr    %cl,%eax
  402e20:	3c 0a                	cmp    $0xa,%al
  402e22:	74 14                	je     402e38 <check+0x2c>
  402e24:	83 c1 08             	add    $0x8,%ecx
  402e27:	83 f9 1f             	cmp    $0x1f,%ecx
  402e2a:	7e f0                	jle    402e1c <check+0x10>
  402e2c:	b8 01 00 00 00       	mov    $0x1,%eax
  402e31:	c3                   	retq   
  402e32:	b8 00 00 00 00       	mov    $0x0,%eax
  402e37:	c3                   	retq   
  402e38:	b8 00 00 00 00       	mov    $0x0,%eax
  402e3d:	c3                   	retq   

0000000000402e3e <gencookie>:
  402e3e:	53                   	push   %rbx
  402e3f:	83 c7 01             	add    $0x1,%edi
  402e42:	e8 69 de ff ff       	callq  400cb0 <srandom@plt>
  402e47:	e8 94 df ff ff       	callq  400de0 <random@plt>
  402e4c:	89 c3                	mov    %eax,%ebx
  402e4e:	89 c7                	mov    %eax,%edi
  402e50:	e8 b7 ff ff ff       	callq  402e0c <check>
  402e55:	85 c0                	test   %eax,%eax
  402e57:	74 ee                	je     402e47 <gencookie+0x9>
  402e59:	89 d8                	mov    %ebx,%eax
  402e5b:	5b                   	pop    %rbx
  402e5c:	c3                   	retq   
  402e5d:	0f 1f 00             	nopl   (%rax)

0000000000402e60 <__libc_csu_init>:
  402e60:	41 57                	push   %r15
  402e62:	41 89 ff             	mov    %edi,%r15d
  402e65:	41 56                	push   %r14
  402e67:	49 89 f6             	mov    %rsi,%r14
  402e6a:	41 55                	push   %r13
  402e6c:	49 89 d5             	mov    %rdx,%r13
  402e6f:	41 54                	push   %r12
  402e71:	4c 8d 25 98 1f 20 00 	lea    0x201f98(%rip),%r12        # 604e10 <__frame_dummy_init_array_entry>
  402e78:	55                   	push   %rbp
  402e79:	48 8d 2d 98 1f 20 00 	lea    0x201f98(%rip),%rbp        # 604e18 <__init_array_end>
  402e80:	53                   	push   %rbx
  402e81:	4c 29 e5             	sub    %r12,%rbp
  402e84:	31 db                	xor    %ebx,%ebx
  402e86:	48 c1 fd 03          	sar    $0x3,%rbp
  402e8a:	48 83 ec 08          	sub    $0x8,%rsp
  402e8e:	e8 cd dd ff ff       	callq  400c60 <_init>
  402e93:	48 85 ed             	test   %rbp,%rbp
  402e96:	74 1e                	je     402eb6 <__libc_csu_init+0x56>
  402e98:	0f 1f 84 00 00 00 00 	nopl   0x0(%rax,%rax,1)
  402e9f:	00 
  402ea0:	4c 89 ea             	mov    %r13,%rdx
  402ea3:	4c 89 f6             	mov    %r14,%rsi
  402ea6:	44 89 ff             	mov    %r15d,%edi
  402ea9:	41 ff 14 dc          	callq  *(%r12,%rbx,8)
  402ead:	48 83 c3 01          	add    $0x1,%rbx
  402eb1:	48 39 eb             	cmp    %rbp,%rbx
  402eb4:	75 ea                	jne    402ea0 <__libc_csu_init+0x40>
  402eb6:	48 83 c4 08          	add    $0x8,%rsp
  402eba:	5b                   	pop    %rbx
  402ebb:	5d                   	pop    %rbp
  402ebc:	41 5c                	pop    %r12
  402ebe:	41 5d                	pop    %r13
  402ec0:	41 5e                	pop    %r14
  402ec2:	41 5f                	pop    %r15
  402ec4:	c3                   	retq   
  402ec5:	66 66 2e 0f 1f 84 00 	data32 nopw %cs:0x0(%rax,%rax,1)
  402ecc:	00 00 00 00 

0000000000402ed0 <__libc_csu_fini>:
  402ed0:	f3 c3                	repz retq 

Disassembly of section .fini:

0000000000402ed4 <_fini>:
  402ed4:	48 83 ec 08          	sub    $0x8,%rsp
  402ed8:	48 83 c4 08          	add    $0x8,%rsp
  402edc:	c3                   	retq   
