
rtarget:     file format elf64-x86-64


Disassembly of section .init:

0000000000400c60 <_init>:
  400c60:	48 83 ec 08          	sub    $0x8,%rsp
  400c64:	48 8b 05 8d 43 20 00 	mov    0x20438d(%rip),%rax        # 604ff8 <_DYNAMIC+0x1d0>
  400c6b:	48 85 c0             	test   %rax,%rax
  400c6e:	74 05                	je     400c75 <_init+0x15>
  400c70:	e8 2b 01 00 00       	callq  400da0 <__gmon_start__@plt>
  400c75:	48 83 c4 08          	add    $0x8,%rsp
  400c79:	c3                   	retq   

Disassembly of section .plt:

0000000000400c80 <strcasecmp@plt-0x10>:
  400c80:	ff 35 82 43 20 00    	pushq  0x204382(%rip)        # 605008 <_GLOBAL_OFFSET_TABLE_+0x8>
  400c86:	ff 25 84 43 20 00    	jmpq   *0x204384(%rip)        # 605010 <_GLOBAL_OFFSET_TABLE_+0x10>
  400c8c:	0f 1f 40 00          	nopl   0x0(%rax)

0000000000400c90 <strcasecmp@plt>:
  400c90:	ff 25 82 43 20 00    	jmpq   *0x204382(%rip)        # 605018 <_GLOBAL_OFFSET_TABLE_+0x18>
  400c96:	68 00 00 00 00       	pushq  $0x0
  400c9b:	e9 e0 ff ff ff       	jmpq   400c80 <_init+0x20>

0000000000400ca0 <__errno_location@plt>:
  400ca0:	ff 25 7a 43 20 00    	jmpq   *0x20437a(%rip)        # 605020 <_GLOBAL_OFFSET_TABLE_+0x20>
  400ca6:	68 01 00 00 00       	pushq  $0x1
  400cab:	e9 d0 ff ff ff       	jmpq   400c80 <_init+0x20>

0000000000400cb0 <srandom@plt>:
  400cb0:	ff 25 72 43 20 00    	jmpq   *0x204372(%rip)        # 605028 <_GLOBAL_OFFSET_TABLE_+0x28>
  400cb6:	68 02 00 00 00       	pushq  $0x2
  400cbb:	e9 c0 ff ff ff       	jmpq   400c80 <_init+0x20>

0000000000400cc0 <strncmp@plt>:
  400cc0:	ff 25 6a 43 20 00    	jmpq   *0x20436a(%rip)        # 605030 <_GLOBAL_OFFSET_TABLE_+0x30>
  400cc6:	68 03 00 00 00       	pushq  $0x3
  400ccb:	e9 b0 ff ff ff       	jmpq   400c80 <_init+0x20>

0000000000400cd0 <strcpy@plt>:
  400cd0:	ff 25 62 43 20 00    	jmpq   *0x204362(%rip)        # 605038 <_GLOBAL_OFFSET_TABLE_+0x38>
  400cd6:	68 04 00 00 00       	pushq  $0x4
  400cdb:	e9 a0 ff ff ff       	jmpq   400c80 <_init+0x20>

0000000000400ce0 <puts@plt>:
  400ce0:	ff 25 5a 43 20 00    	jmpq   *0x20435a(%rip)        # 605040 <_GLOBAL_OFFSET_TABLE_+0x40>
  400ce6:	68 05 00 00 00       	pushq  $0x5
  400ceb:	e9 90 ff ff ff       	jmpq   400c80 <_init+0x20>

0000000000400cf0 <write@plt>:
  400cf0:	ff 25 52 43 20 00    	jmpq   *0x204352(%rip)        # 605048 <_GLOBAL_OFFSET_TABLE_+0x48>
  400cf6:	68 06 00 00 00       	pushq  $0x6
  400cfb:	e9 80 ff ff ff       	jmpq   400c80 <_init+0x20>

0000000000400d00 <__stack_chk_fail@plt>:
  400d00:	ff 25 4a 43 20 00    	jmpq   *0x20434a(%rip)        # 605050 <_GLOBAL_OFFSET_TABLE_+0x50>
  400d06:	68 07 00 00 00       	pushq  $0x7
  400d0b:	e9 70 ff ff ff       	jmpq   400c80 <_init+0x20>

0000000000400d10 <mmap@plt>:
  400d10:	ff 25 42 43 20 00    	jmpq   *0x204342(%rip)        # 605058 <_GLOBAL_OFFSET_TABLE_+0x58>
  400d16:	68 08 00 00 00       	pushq  $0x8
  400d1b:	e9 60 ff ff ff       	jmpq   400c80 <_init+0x20>

0000000000400d20 <memset@plt>:
  400d20:	ff 25 3a 43 20 00    	jmpq   *0x20433a(%rip)        # 605060 <_GLOBAL_OFFSET_TABLE_+0x60>
  400d26:	68 09 00 00 00       	pushq  $0x9
  400d2b:	e9 50 ff ff ff       	jmpq   400c80 <_init+0x20>

0000000000400d30 <alarm@plt>:
  400d30:	ff 25 32 43 20 00    	jmpq   *0x204332(%rip)        # 605068 <_GLOBAL_OFFSET_TABLE_+0x68>
  400d36:	68 0a 00 00 00       	pushq  $0xa
  400d3b:	e9 40 ff ff ff       	jmpq   400c80 <_init+0x20>

0000000000400d40 <close@plt>:
  400d40:	ff 25 2a 43 20 00    	jmpq   *0x20432a(%rip)        # 605070 <_GLOBAL_OFFSET_TABLE_+0x70>
  400d46:	68 0b 00 00 00       	pushq  $0xb
  400d4b:	e9 30 ff ff ff       	jmpq   400c80 <_init+0x20>

0000000000400d50 <read@plt>:
  400d50:	ff 25 22 43 20 00    	jmpq   *0x204322(%rip)        # 605078 <_GLOBAL_OFFSET_TABLE_+0x78>
  400d56:	68 0c 00 00 00       	pushq  $0xc
  400d5b:	e9 20 ff ff ff       	jmpq   400c80 <_init+0x20>

0000000000400d60 <__libc_start_main@plt>:
  400d60:	ff 25 1a 43 20 00    	jmpq   *0x20431a(%rip)        # 605080 <_GLOBAL_OFFSET_TABLE_+0x80>
  400d66:	68 0d 00 00 00       	pushq  $0xd
  400d6b:	e9 10 ff ff ff       	jmpq   400c80 <_init+0x20>

0000000000400d70 <signal@plt>:
  400d70:	ff 25 12 43 20 00    	jmpq   *0x204312(%rip)        # 605088 <_GLOBAL_OFFSET_TABLE_+0x88>
  400d76:	68 0e 00 00 00       	pushq  $0xe
  400d7b:	e9 00 ff ff ff       	jmpq   400c80 <_init+0x20>

0000000000400d80 <gethostbyname@plt>:
  400d80:	ff 25 0a 43 20 00    	jmpq   *0x20430a(%rip)        # 605090 <_GLOBAL_OFFSET_TABLE_+0x90>
  400d86:	68 0f 00 00 00       	pushq  $0xf
  400d8b:	e9 f0 fe ff ff       	jmpq   400c80 <_init+0x20>

0000000000400d90 <__memmove_chk@plt>:
  400d90:	ff 25 02 43 20 00    	jmpq   *0x204302(%rip)        # 605098 <_GLOBAL_OFFSET_TABLE_+0x98>
  400d96:	68 10 00 00 00       	pushq  $0x10
  400d9b:	e9 e0 fe ff ff       	jmpq   400c80 <_init+0x20>

0000000000400da0 <__gmon_start__@plt>:
  400da0:	ff 25 fa 42 20 00    	jmpq   *0x2042fa(%rip)        # 6050a0 <_GLOBAL_OFFSET_TABLE_+0xa0>
  400da6:	68 11 00 00 00       	pushq  $0x11
  400dab:	e9 d0 fe ff ff       	jmpq   400c80 <_init+0x20>

0000000000400db0 <strtol@plt>:
  400db0:	ff 25 f2 42 20 00    	jmpq   *0x2042f2(%rip)        # 6050a8 <_GLOBAL_OFFSET_TABLE_+0xa8>
  400db6:	68 12 00 00 00       	pushq  $0x12
  400dbb:	e9 c0 fe ff ff       	jmpq   400c80 <_init+0x20>

0000000000400dc0 <memcpy@plt>:
  400dc0:	ff 25 ea 42 20 00    	jmpq   *0x2042ea(%rip)        # 6050b0 <_GLOBAL_OFFSET_TABLE_+0xb0>
  400dc6:	68 13 00 00 00       	pushq  $0x13
  400dcb:	e9 b0 fe ff ff       	jmpq   400c80 <_init+0x20>

0000000000400dd0 <time@plt>:
  400dd0:	ff 25 e2 42 20 00    	jmpq   *0x2042e2(%rip)        # 6050b8 <_GLOBAL_OFFSET_TABLE_+0xb8>
  400dd6:	68 14 00 00 00       	pushq  $0x14
  400ddb:	e9 a0 fe ff ff       	jmpq   400c80 <_init+0x20>

0000000000400de0 <random@plt>:
  400de0:	ff 25 da 42 20 00    	jmpq   *0x2042da(%rip)        # 6050c0 <_GLOBAL_OFFSET_TABLE_+0xc0>
  400de6:	68 15 00 00 00       	pushq  $0x15
  400deb:	e9 90 fe ff ff       	jmpq   400c80 <_init+0x20>

0000000000400df0 <_IO_getc@plt>:
  400df0:	ff 25 d2 42 20 00    	jmpq   *0x2042d2(%rip)        # 6050c8 <_GLOBAL_OFFSET_TABLE_+0xc8>
  400df6:	68 16 00 00 00       	pushq  $0x16
  400dfb:	e9 80 fe ff ff       	jmpq   400c80 <_init+0x20>

0000000000400e00 <__isoc99_sscanf@plt>:
  400e00:	ff 25 ca 42 20 00    	jmpq   *0x2042ca(%rip)        # 6050d0 <_GLOBAL_OFFSET_TABLE_+0xd0>
  400e06:	68 17 00 00 00       	pushq  $0x17
  400e0b:	e9 70 fe ff ff       	jmpq   400c80 <_init+0x20>

0000000000400e10 <munmap@plt>:
  400e10:	ff 25 c2 42 20 00    	jmpq   *0x2042c2(%rip)        # 6050d8 <_GLOBAL_OFFSET_TABLE_+0xd8>
  400e16:	68 18 00 00 00       	pushq  $0x18
  400e1b:	e9 60 fe ff ff       	jmpq   400c80 <_init+0x20>

0000000000400e20 <__printf_chk@plt>:
  400e20:	ff 25 ba 42 20 00    	jmpq   *0x2042ba(%rip)        # 6050e0 <_GLOBAL_OFFSET_TABLE_+0xe0>
  400e26:	68 19 00 00 00       	pushq  $0x19
  400e2b:	e9 50 fe ff ff       	jmpq   400c80 <_init+0x20>

0000000000400e30 <fopen@plt>:
  400e30:	ff 25 b2 42 20 00    	jmpq   *0x2042b2(%rip)        # 6050e8 <_GLOBAL_OFFSET_TABLE_+0xe8>
  400e36:	68 1a 00 00 00       	pushq  $0x1a
  400e3b:	e9 40 fe ff ff       	jmpq   400c80 <_init+0x20>

0000000000400e40 <getopt@plt>:
  400e40:	ff 25 aa 42 20 00    	jmpq   *0x2042aa(%rip)        # 6050f0 <_GLOBAL_OFFSET_TABLE_+0xf0>
  400e46:	68 1b 00 00 00       	pushq  $0x1b
  400e4b:	e9 30 fe ff ff       	jmpq   400c80 <_init+0x20>

0000000000400e50 <strtoul@plt>:
  400e50:	ff 25 a2 42 20 00    	jmpq   *0x2042a2(%rip)        # 6050f8 <_GLOBAL_OFFSET_TABLE_+0xf8>
  400e56:	68 1c 00 00 00       	pushq  $0x1c
  400e5b:	e9 20 fe ff ff       	jmpq   400c80 <_init+0x20>

0000000000400e60 <gethostname@plt>:
  400e60:	ff 25 9a 42 20 00    	jmpq   *0x20429a(%rip)        # 605100 <_GLOBAL_OFFSET_TABLE_+0x100>
  400e66:	68 1d 00 00 00       	pushq  $0x1d
  400e6b:	e9 10 fe ff ff       	jmpq   400c80 <_init+0x20>

0000000000400e70 <exit@plt>:
  400e70:	ff 25 92 42 20 00    	jmpq   *0x204292(%rip)        # 605108 <_GLOBAL_OFFSET_TABLE_+0x108>
  400e76:	68 1e 00 00 00       	pushq  $0x1e
  400e7b:	e9 00 fe ff ff       	jmpq   400c80 <_init+0x20>

0000000000400e80 <connect@plt>:
  400e80:	ff 25 8a 42 20 00    	jmpq   *0x20428a(%rip)        # 605110 <_GLOBAL_OFFSET_TABLE_+0x110>
  400e86:	68 1f 00 00 00       	pushq  $0x1f
  400e8b:	e9 f0 fd ff ff       	jmpq   400c80 <_init+0x20>

0000000000400e90 <__fprintf_chk@plt>:
  400e90:	ff 25 82 42 20 00    	jmpq   *0x204282(%rip)        # 605118 <_GLOBAL_OFFSET_TABLE_+0x118>
  400e96:	68 20 00 00 00       	pushq  $0x20
  400e9b:	e9 e0 fd ff ff       	jmpq   400c80 <_init+0x20>

0000000000400ea0 <__sprintf_chk@plt>:
  400ea0:	ff 25 7a 42 20 00    	jmpq   *0x20427a(%rip)        # 605120 <_GLOBAL_OFFSET_TABLE_+0x120>
  400ea6:	68 21 00 00 00       	pushq  $0x21
  400eab:	e9 d0 fd ff ff       	jmpq   400c80 <_init+0x20>

0000000000400eb0 <socket@plt>:
  400eb0:	ff 25 72 42 20 00    	jmpq   *0x204272(%rip)        # 605128 <_GLOBAL_OFFSET_TABLE_+0x128>
  400eb6:	68 22 00 00 00       	pushq  $0x22
  400ebb:	e9 c0 fd ff ff       	jmpq   400c80 <_init+0x20>

Disassembly of section .text:

0000000000400ec0 <_start>:
  400ec0:	31 ed                	xor    %ebp,%ebp
  400ec2:	49 89 d1             	mov    %rdx,%r9
  400ec5:	5e                   	pop    %rsi
  400ec6:	48 89 e2             	mov    %rsp,%rdx
  400ec9:	48 83 e4 f0          	and    $0xfffffffffffffff0,%rsp
  400ecd:	50                   	push   %rax
  400ece:	54                   	push   %rsp
  400ecf:	49 c7 c0 f0 2f 40 00 	mov    $0x402ff0,%r8
  400ed6:	48 c7 c1 80 2f 40 00 	mov    $0x402f80,%rcx
  400edd:	48 c7 c7 c5 11 40 00 	mov    $0x4011c5,%rdi
  400ee4:	e8 77 fe ff ff       	callq  400d60 <__libc_start_main@plt>
  400ee9:	f4                   	hlt    
  400eea:	66 0f 1f 44 00 00    	nopw   0x0(%rax,%rax,1)

0000000000400ef0 <deregister_tm_clones>:
  400ef0:	b8 b7 54 60 00       	mov    $0x6054b7,%eax
  400ef5:	55                   	push   %rbp
  400ef6:	48 2d b0 54 60 00    	sub    $0x6054b0,%rax
  400efc:	48 83 f8 0e          	cmp    $0xe,%rax
  400f00:	48 89 e5             	mov    %rsp,%rbp
  400f03:	76 1b                	jbe    400f20 <deregister_tm_clones+0x30>
  400f05:	b8 00 00 00 00       	mov    $0x0,%eax
  400f0a:	48 85 c0             	test   %rax,%rax
  400f0d:	74 11                	je     400f20 <deregister_tm_clones+0x30>
  400f0f:	5d                   	pop    %rbp
  400f10:	bf b0 54 60 00       	mov    $0x6054b0,%edi
  400f15:	ff e0                	jmpq   *%rax
  400f17:	66 0f 1f 84 00 00 00 	nopw   0x0(%rax,%rax,1)
  400f1e:	00 00 
  400f20:	5d                   	pop    %rbp
  400f21:	c3                   	retq   
  400f22:	66 66 66 66 66 2e 0f 	data32 data32 data32 data32 nopw %cs:0x0(%rax,%rax,1)
  400f29:	1f 84 00 00 00 00 00 

0000000000400f30 <register_tm_clones>:
  400f30:	be b0 54 60 00       	mov    $0x6054b0,%esi
  400f35:	55                   	push   %rbp
  400f36:	48 81 ee b0 54 60 00 	sub    $0x6054b0,%rsi
  400f3d:	48 c1 fe 03          	sar    $0x3,%rsi
  400f41:	48 89 e5             	mov    %rsp,%rbp
  400f44:	48 89 f0             	mov    %rsi,%rax
  400f47:	48 c1 e8 3f          	shr    $0x3f,%rax
  400f4b:	48 01 c6             	add    %rax,%rsi
  400f4e:	48 d1 fe             	sar    %rsi
  400f51:	74 15                	je     400f68 <register_tm_clones+0x38>
  400f53:	b8 00 00 00 00       	mov    $0x0,%eax
  400f58:	48 85 c0             	test   %rax,%rax
  400f5b:	74 0b                	je     400f68 <register_tm_clones+0x38>
  400f5d:	5d                   	pop    %rbp
  400f5e:	bf b0 54 60 00       	mov    $0x6054b0,%edi
  400f63:	ff e0                	jmpq   *%rax
  400f65:	0f 1f 00             	nopl   (%rax)
  400f68:	5d                   	pop    %rbp
  400f69:	c3                   	retq   
  400f6a:	66 0f 1f 44 00 00    	nopw   0x0(%rax,%rax,1)

0000000000400f70 <__do_global_dtors_aux>:
  400f70:	80 3d 79 45 20 00 00 	cmpb   $0x0,0x204579(%rip)        # 6054f0 <completed.7553>
  400f77:	75 11                	jne    400f8a <__do_global_dtors_aux+0x1a>
  400f79:	55                   	push   %rbp
  400f7a:	48 89 e5             	mov    %rsp,%rbp
  400f7d:	e8 6e ff ff ff       	callq  400ef0 <deregister_tm_clones>
  400f82:	5d                   	pop    %rbp
  400f83:	c6 05 66 45 20 00 01 	movb   $0x1,0x204566(%rip)        # 6054f0 <completed.7553>
  400f8a:	f3 c3                	repz retq 
  400f8c:	0f 1f 40 00          	nopl   0x0(%rax)

0000000000400f90 <frame_dummy>:
  400f90:	bf 20 4e 60 00       	mov    $0x604e20,%edi
  400f95:	48 83 3f 00          	cmpq   $0x0,(%rdi)
  400f99:	75 05                	jne    400fa0 <frame_dummy+0x10>
  400f9b:	eb 93                	jmp    400f30 <register_tm_clones>
  400f9d:	0f 1f 00             	nopl   (%rax)
  400fa0:	b8 00 00 00 00       	mov    $0x0,%eax
  400fa5:	48 85 c0             	test   %rax,%rax
  400fa8:	74 f1                	je     400f9b <frame_dummy+0xb>
  400faa:	55                   	push   %rbp
  400fab:	48 89 e5             	mov    %rsp,%rbp
  400fae:	ff d0                	callq  *%rax
  400fb0:	5d                   	pop    %rbp
  400fb1:	e9 7a ff ff ff       	jmpq   400f30 <register_tm_clones>

0000000000400fb6 <usage>:
  400fb6:	48 83 ec 08          	sub    $0x8,%rsp
  400fba:	48 89 fa             	mov    %rdi,%rdx
  400fbd:	83 3d 64 45 20 00 00 	cmpl   $0x0,0x204564(%rip)        # 605528 <is_checker>
  400fc4:	74 3e                	je     401004 <usage+0x4e>
  400fc6:	be 08 30 40 00       	mov    $0x403008,%esi
  400fcb:	bf 01 00 00 00       	mov    $0x1,%edi
  400fd0:	b8 00 00 00 00       	mov    $0x0,%eax
  400fd5:	e8 46 fe ff ff       	callq  400e20 <__printf_chk@plt>
  400fda:	bf 40 30 40 00       	mov    $0x403040,%edi
  400fdf:	e8 fc fc ff ff       	callq  400ce0 <puts@plt>
  400fe4:	bf b8 31 40 00       	mov    $0x4031b8,%edi
  400fe9:	e8 f2 fc ff ff       	callq  400ce0 <puts@plt>
  400fee:	bf 68 30 40 00       	mov    $0x403068,%edi
  400ff3:	e8 e8 fc ff ff       	callq  400ce0 <puts@plt>
  400ff8:	bf d2 31 40 00       	mov    $0x4031d2,%edi
  400ffd:	e8 de fc ff ff       	callq  400ce0 <puts@plt>
  401002:	eb 32                	jmp    401036 <usage+0x80>
  401004:	be ee 31 40 00       	mov    $0x4031ee,%esi
  401009:	bf 01 00 00 00       	mov    $0x1,%edi
  40100e:	b8 00 00 00 00       	mov    $0x0,%eax
  401013:	e8 08 fe ff ff       	callq  400e20 <__printf_chk@plt>
  401018:	bf 90 30 40 00       	mov    $0x403090,%edi
  40101d:	e8 be fc ff ff       	callq  400ce0 <puts@plt>
  401022:	bf b8 30 40 00       	mov    $0x4030b8,%edi
  401027:	e8 b4 fc ff ff       	callq  400ce0 <puts@plt>
  40102c:	bf 0c 32 40 00       	mov    $0x40320c,%edi
  401031:	e8 aa fc ff ff       	callq  400ce0 <puts@plt>
  401036:	bf 00 00 00 00       	mov    $0x0,%edi
  40103b:	e8 30 fe ff ff       	callq  400e70 <exit@plt>

0000000000401040 <initialize_target>:
  401040:	55                   	push   %rbp
  401041:	53                   	push   %rbx
  401042:	48 81 ec 18 21 00 00 	sub    $0x2118,%rsp
  401049:	89 f5                	mov    %esi,%ebp
  40104b:	64 48 8b 04 25 28 00 	mov    %fs:0x28,%rax
  401052:	00 00 
  401054:	48 89 84 24 08 21 00 	mov    %rax,0x2108(%rsp)
  40105b:	00 
  40105c:	31 c0                	xor    %eax,%eax
  40105e:	89 3d b4 44 20 00    	mov    %edi,0x2044b4(%rip)        # 605518 <check_level>
  401064:	8b 3d fe 40 20 00    	mov    0x2040fe(%rip),%edi        # 605168 <target_id>
  40106a:	e8 f1 1e 00 00       	callq  402f60 <gencookie>
  40106f:	89 05 af 44 20 00    	mov    %eax,0x2044af(%rip)        # 605524 <cookie>
  401075:	89 c7                	mov    %eax,%edi
  401077:	e8 e4 1e 00 00       	callq  402f60 <gencookie>
  40107c:	89 05 9e 44 20 00    	mov    %eax,0x20449e(%rip)        # 605520 <authkey>
  401082:	8b 05 e0 40 20 00    	mov    0x2040e0(%rip),%eax        # 605168 <target_id>
  401088:	8d 78 01             	lea    0x1(%rax),%edi
  40108b:	e8 20 fc ff ff       	callq  400cb0 <srandom@plt>
  401090:	e8 4b fd ff ff       	callq  400de0 <random@plt>
  401095:	89 c7                	mov    %eax,%edi
  401097:	e8 03 03 00 00       	callq  40139f <scramble>
  40109c:	89 c3                	mov    %eax,%ebx
  40109e:	85 ed                	test   %ebp,%ebp
  4010a0:	74 18                	je     4010ba <initialize_target+0x7a>
  4010a2:	bf 00 00 00 00       	mov    $0x0,%edi
  4010a7:	e8 24 fd ff ff       	callq  400dd0 <time@plt>
  4010ac:	89 c7                	mov    %eax,%edi
  4010ae:	e8 fd fb ff ff       	callq  400cb0 <srandom@plt>
  4010b3:	e8 28 fd ff ff       	callq  400de0 <random@plt>
  4010b8:	eb 05                	jmp    4010bf <initialize_target+0x7f>
  4010ba:	b8 00 00 00 00       	mov    $0x0,%eax
  4010bf:	01 c3                	add    %eax,%ebx
  4010c1:	0f b7 db             	movzwl %bx,%ebx
  4010c4:	8d 04 dd 00 01 00 00 	lea    0x100(,%rbx,8),%eax
  4010cb:	89 c0                	mov    %eax,%eax
  4010cd:	48 89 05 cc 43 20 00 	mov    %rax,0x2043cc(%rip)        # 6054a0 <buf_offset>
  4010d4:	c6 05 6d 50 20 00 72 	movb   $0x72,0x20506d(%rip)        # 606148 <target_prefix>
  4010db:	83 3d c6 43 20 00 00 	cmpl   $0x0,0x2043c6(%rip)        # 6054a8 <notify>
  4010e2:	0f 84 bb 00 00 00    	je     4011a3 <initialize_target+0x163>
  4010e8:	83 3d 39 44 20 00 00 	cmpl   $0x0,0x204439(%rip)        # 605528 <is_checker>
  4010ef:	0f 85 ae 00 00 00    	jne    4011a3 <initialize_target+0x163>
  4010f5:	be 00 01 00 00       	mov    $0x100,%esi
  4010fa:	48 89 e7             	mov    %rsp,%rdi
  4010fd:	e8 5e fd ff ff       	callq  400e60 <gethostname@plt>
  401102:	85 c0                	test   %eax,%eax
  401104:	74 25                	je     40112b <initialize_target+0xeb>
  401106:	bf e8 30 40 00       	mov    $0x4030e8,%edi
  40110b:	e8 d0 fb ff ff       	callq  400ce0 <puts@plt>
  401110:	bf 08 00 00 00       	mov    $0x8,%edi
  401115:	e8 56 fd ff ff       	callq  400e70 <exit@plt>
  40111a:	48 89 e6             	mov    %rsp,%rsi
  40111d:	e8 6e fb ff ff       	callq  400c90 <strcasecmp@plt>
  401122:	85 c0                	test   %eax,%eax
  401124:	74 21                	je     401147 <initialize_target+0x107>
  401126:	83 c3 01             	add    $0x1,%ebx
  401129:	eb 05                	jmp    401130 <initialize_target+0xf0>
  40112b:	bb 00 00 00 00       	mov    $0x0,%ebx
  401130:	48 63 c3             	movslq %ebx,%rax
  401133:	48 8b 3c c5 80 51 60 	mov    0x605180(,%rax,8),%rdi
  40113a:	00 
  40113b:	48 85 ff             	test   %rdi,%rdi
  40113e:	75 da                	jne    40111a <initialize_target+0xda>
  401140:	b8 00 00 00 00       	mov    $0x0,%eax
  401145:	eb 05                	jmp    40114c <initialize_target+0x10c>
  401147:	b8 01 00 00 00       	mov    $0x1,%eax
  40114c:	85 c0                	test   %eax,%eax
  40114e:	75 1c                	jne    40116c <initialize_target+0x12c>
  401150:	48 89 e2             	mov    %rsp,%rdx
  401153:	be 20 31 40 00       	mov    $0x403120,%esi
  401158:	bf 01 00 00 00       	mov    $0x1,%edi
  40115d:	e8 be fc ff ff       	callq  400e20 <__printf_chk@plt>
  401162:	bf 08 00 00 00       	mov    $0x8,%edi
  401167:	e8 04 fd ff ff       	callq  400e70 <exit@plt>
  40116c:	48 8d bc 24 00 01 00 	lea    0x100(%rsp),%rdi
  401173:	00 
  401174:	e8 51 1b 00 00       	callq  402cca <init_driver>
  401179:	85 c0                	test   %eax,%eax
  40117b:	79 26                	jns    4011a3 <initialize_target+0x163>
  40117d:	48 8d 94 24 00 01 00 	lea    0x100(%rsp),%rdx
  401184:	00 
  401185:	be 60 31 40 00       	mov    $0x403160,%esi
  40118a:	bf 01 00 00 00       	mov    $0x1,%edi
  40118f:	b8 00 00 00 00       	mov    $0x0,%eax
  401194:	e8 87 fc ff ff       	callq  400e20 <__printf_chk@plt>
  401199:	bf 08 00 00 00       	mov    $0x8,%edi
  40119e:	e8 cd fc ff ff       	callq  400e70 <exit@plt>
  4011a3:	48 8b 84 24 08 21 00 	mov    0x2108(%rsp),%rax
  4011aa:	00 
  4011ab:	64 48 33 04 25 28 00 	xor    %fs:0x28,%rax
  4011b2:	00 00 
  4011b4:	74 05                	je     4011bb <initialize_target+0x17b>
  4011b6:	e8 45 fb ff ff       	callq  400d00 <__stack_chk_fail@plt>
  4011bb:	48 81 c4 18 21 00 00 	add    $0x2118,%rsp
  4011c2:	5b                   	pop    %rbx
  4011c3:	5d                   	pop    %rbp
  4011c4:	c3                   	retq   

00000000004011c5 <main>:
  4011c5:	41 56                	push   %r14
  4011c7:	41 55                	push   %r13
  4011c9:	41 54                	push   %r12
  4011cb:	55                   	push   %rbp
  4011cc:	53                   	push   %rbx
  4011cd:	41 89 fc             	mov    %edi,%r12d
  4011d0:	48 89 f3             	mov    %rsi,%rbx
  4011d3:	be 39 20 40 00       	mov    $0x402039,%esi
  4011d8:	bf 0b 00 00 00       	mov    $0xb,%edi
  4011dd:	e8 8e fb ff ff       	callq  400d70 <signal@plt>
  4011e2:	be eb 1f 40 00       	mov    $0x401feb,%esi
  4011e7:	bf 07 00 00 00       	mov    $0x7,%edi
  4011ec:	e8 7f fb ff ff       	callq  400d70 <signal@plt>
  4011f1:	be 87 20 40 00       	mov    $0x402087,%esi
  4011f6:	bf 04 00 00 00       	mov    $0x4,%edi
  4011fb:	e8 70 fb ff ff       	callq  400d70 <signal@plt>
  401200:	83 3d 21 43 20 00 00 	cmpl   $0x0,0x204321(%rip)        # 605528 <is_checker>
  401207:	74 20                	je     401229 <main+0x64>
  401209:	be d5 20 40 00       	mov    $0x4020d5,%esi
  40120e:	bf 0e 00 00 00       	mov    $0xe,%edi
  401213:	e8 58 fb ff ff       	callq  400d70 <signal@plt>
  401218:	bf 05 00 00 00       	mov    $0x5,%edi
  40121d:	e8 0e fb ff ff       	callq  400d30 <alarm@plt>
  401222:	bd 2a 32 40 00       	mov    $0x40322a,%ebp
  401227:	eb 05                	jmp    40122e <main+0x69>
  401229:	bd 25 32 40 00       	mov    $0x403225,%ebp
  40122e:	48 8b 05 8b 42 20 00 	mov    0x20428b(%rip),%rax        # 6054c0 <stdin@@GLIBC_2.2.5>
  401235:	48 89 05 d4 42 20 00 	mov    %rax,0x2042d4(%rip)        # 605510 <infile>
  40123c:	41 bd 00 00 00 00    	mov    $0x0,%r13d
  401242:	41 be 00 00 00 00    	mov    $0x0,%r14d
  401248:	e9 c6 00 00 00       	jmpq   401313 <main+0x14e>
  40124d:	83 e8 61             	sub    $0x61,%eax
  401250:	3c 10                	cmp    $0x10,%al
  401252:	0f 87 9c 00 00 00    	ja     4012f4 <main+0x12f>
  401258:	0f b6 c0             	movzbl %al,%eax
  40125b:	ff 24 c5 70 32 40 00 	jmpq   *0x403270(,%rax,8)
  401262:	48 8b 3b             	mov    (%rbx),%rdi
  401265:	e8 4c fd ff ff       	callq  400fb6 <usage>
  40126a:	be f5 34 40 00       	mov    $0x4034f5,%esi
  40126f:	48 8b 3d 6a 42 20 00 	mov    0x20426a(%rip),%rdi        # 6054e0 <optarg@@GLIBC_2.2.5>
  401276:	e8 b5 fb ff ff       	callq  400e30 <fopen@plt>
  40127b:	48 89 05 8e 42 20 00 	mov    %rax,0x20428e(%rip)        # 605510 <infile>
  401282:	48 85 c0             	test   %rax,%rax
  401285:	0f 85 88 00 00 00    	jne    401313 <main+0x14e>
  40128b:	48 8b 0d 4e 42 20 00 	mov    0x20424e(%rip),%rcx        # 6054e0 <optarg@@GLIBC_2.2.5>
  401292:	ba 32 32 40 00       	mov    $0x403232,%edx
  401297:	be 01 00 00 00       	mov    $0x1,%esi
  40129c:	48 8b 3d 45 42 20 00 	mov    0x204245(%rip),%rdi        # 6054e8 <stderr@@GLIBC_2.2.5>
  4012a3:	e8 e8 fb ff ff       	callq  400e90 <__fprintf_chk@plt>
  4012a8:	b8 01 00 00 00       	mov    $0x1,%eax
  4012ad:	e9 e4 00 00 00       	jmpq   401396 <main+0x1d1>
  4012b2:	ba 10 00 00 00       	mov    $0x10,%edx
  4012b7:	be 00 00 00 00       	mov    $0x0,%esi
  4012bc:	48 8b 3d 1d 42 20 00 	mov    0x20421d(%rip),%rdi        # 6054e0 <optarg@@GLIBC_2.2.5>
  4012c3:	e8 88 fb ff ff       	callq  400e50 <strtoul@plt>
  4012c8:	41 89 c6             	mov    %eax,%r14d
  4012cb:	eb 46                	jmp    401313 <main+0x14e>
  4012cd:	ba 0a 00 00 00       	mov    $0xa,%edx
  4012d2:	be 00 00 00 00       	mov    $0x0,%esi
  4012d7:	48 8b 3d 02 42 20 00 	mov    0x204202(%rip),%rdi        # 6054e0 <optarg@@GLIBC_2.2.5>
  4012de:	e8 cd fa ff ff       	callq  400db0 <strtol@plt>
  4012e3:	41 89 c5             	mov    %eax,%r13d
  4012e6:	eb 2b                	jmp    401313 <main+0x14e>
  4012e8:	c7 05 b6 41 20 00 00 	movl   $0x0,0x2041b6(%rip)        # 6054a8 <notify>
  4012ef:	00 00 00 
  4012f2:	eb 1f                	jmp    401313 <main+0x14e>
  4012f4:	0f be d2             	movsbl %dl,%edx
  4012f7:	be 4f 32 40 00       	mov    $0x40324f,%esi
  4012fc:	bf 01 00 00 00       	mov    $0x1,%edi
  401301:	b8 00 00 00 00       	mov    $0x0,%eax
  401306:	e8 15 fb ff ff       	callq  400e20 <__printf_chk@plt>
  40130b:	48 8b 3b             	mov    (%rbx),%rdi
  40130e:	e8 a3 fc ff ff       	callq  400fb6 <usage>
  401313:	48 89 ea             	mov    %rbp,%rdx
  401316:	48 89 de             	mov    %rbx,%rsi
  401319:	44 89 e7             	mov    %r12d,%edi
  40131c:	e8 1f fb ff ff       	callq  400e40 <getopt@plt>
  401321:	89 c2                	mov    %eax,%edx
  401323:	3c ff                	cmp    $0xff,%al
  401325:	0f 85 22 ff ff ff    	jne    40124d <main+0x88>
  40132b:	be 01 00 00 00       	mov    $0x1,%esi
  401330:	44 89 ef             	mov    %r13d,%edi
  401333:	e8 08 fd ff ff       	callq  401040 <initialize_target>
  401338:	83 3d e9 41 20 00 00 	cmpl   $0x0,0x2041e9(%rip)        # 605528 <is_checker>
  40133f:	74 2a                	je     40136b <main+0x1a6>
  401341:	44 3b 35 d8 41 20 00 	cmp    0x2041d8(%rip),%r14d        # 605520 <authkey>
  401348:	74 21                	je     40136b <main+0x1a6>
  40134a:	44 89 f2             	mov    %r14d,%edx
  40134d:	be 88 31 40 00       	mov    $0x403188,%esi
  401352:	bf 01 00 00 00       	mov    $0x1,%edi
  401357:	b8 00 00 00 00       	mov    $0x0,%eax
  40135c:	e8 bf fa ff ff       	callq  400e20 <__printf_chk@plt>
  401361:	b8 00 00 00 00       	mov    $0x0,%eax
  401366:	e8 1c 09 00 00       	callq  401c87 <check_fail>
  40136b:	8b 15 b3 41 20 00    	mov    0x2041b3(%rip),%edx        # 605524 <cookie>
  401371:	be 62 32 40 00       	mov    $0x403262,%esi
  401376:	bf 01 00 00 00       	mov    $0x1,%edi
  40137b:	b8 00 00 00 00       	mov    $0x0,%eax
  401380:	e8 9b fa ff ff       	callq  400e20 <__printf_chk@plt>
  401385:	48 8b 3d 14 41 20 00 	mov    0x204114(%rip),%rdi        # 6054a0 <buf_offset>
  40138c:	e8 97 0d 00 00       	callq  402128 <launch>
  401391:	b8 00 00 00 00       	mov    $0x0,%eax
  401396:	5b                   	pop    %rbx
  401397:	5d                   	pop    %rbp
  401398:	41 5c                	pop    %r12
  40139a:	41 5d                	pop    %r13
  40139c:	41 5e                	pop    %r14
  40139e:	c3                   	retq   

000000000040139f <scramble>:
  40139f:	b8 00 00 00 00       	mov    $0x0,%eax
  4013a4:	eb 11                	jmp    4013b7 <scramble+0x18>
  4013a6:	69 d0 fd ed 00 00    	imul   $0xedfd,%eax,%edx
  4013ac:	01 fa                	add    %edi,%edx
  4013ae:	89 c1                	mov    %eax,%ecx
  4013b0:	89 54 8c c8          	mov    %edx,-0x38(%rsp,%rcx,4)
  4013b4:	83 c0 01             	add    $0x1,%eax
  4013b7:	83 f8 09             	cmp    $0x9,%eax
  4013ba:	76 ea                	jbe    4013a6 <scramble+0x7>
  4013bc:	8b 44 24 d0          	mov    -0x30(%rsp),%eax
  4013c0:	69 c0 89 aa 00 00    	imul   $0xaa89,%eax,%eax
  4013c6:	89 44 24 d0          	mov    %eax,-0x30(%rsp)
  4013ca:	8b 44 24 d4          	mov    -0x2c(%rsp),%eax
  4013ce:	69 c0 c3 bf 00 00    	imul   $0xbfc3,%eax,%eax
  4013d4:	89 44 24 d4          	mov    %eax,-0x2c(%rsp)
  4013d8:	8b 44 24 d4          	mov    -0x2c(%rsp),%eax
  4013dc:	69 c0 77 1b 00 00    	imul   $0x1b77,%eax,%eax
  4013e2:	89 44 24 d4          	mov    %eax,-0x2c(%rsp)
  4013e6:	8b 44 24 e8          	mov    -0x18(%rsp),%eax
  4013ea:	69 c0 af b2 00 00    	imul   $0xb2af,%eax,%eax
  4013f0:	89 44 24 e8          	mov    %eax,-0x18(%rsp)
  4013f4:	8b 44 24 dc          	mov    -0x24(%rsp),%eax
  4013f8:	69 c0 8d 31 00 00    	imul   $0x318d,%eax,%eax
  4013fe:	89 44 24 dc          	mov    %eax,-0x24(%rsp)
  401402:	8b 44 24 cc          	mov    -0x34(%rsp),%eax
  401406:	69 c0 4f 12 00 00    	imul   $0x124f,%eax,%eax
  40140c:	89 44 24 cc          	mov    %eax,-0x34(%rsp)
  401410:	8b 44 24 d0          	mov    -0x30(%rsp),%eax
  401414:	69 c0 24 4e 00 00    	imul   $0x4e24,%eax,%eax
  40141a:	89 44 24 d0          	mov    %eax,-0x30(%rsp)
  40141e:	8b 44 24 d8          	mov    -0x28(%rsp),%eax
  401422:	69 c0 8d 3b 00 00    	imul   $0x3b8d,%eax,%eax
  401428:	89 44 24 d8          	mov    %eax,-0x28(%rsp)
  40142c:	8b 44 24 d4          	mov    -0x2c(%rsp),%eax
  401430:	69 c0 fd 53 00 00    	imul   $0x53fd,%eax,%eax
  401436:	89 44 24 d4          	mov    %eax,-0x2c(%rsp)
  40143a:	8b 44 24 d8          	mov    -0x28(%rsp),%eax
  40143e:	69 c0 2f a9 00 00    	imul   $0xa92f,%eax,%eax
  401444:	89 44 24 d8          	mov    %eax,-0x28(%rsp)
  401448:	8b 44 24 d8          	mov    -0x28(%rsp),%eax
  40144c:	69 c0 a5 1c 00 00    	imul   $0x1ca5,%eax,%eax
  401452:	89 44 24 d8          	mov    %eax,-0x28(%rsp)
  401456:	8b 44 24 dc          	mov    -0x24(%rsp),%eax
  40145a:	69 c0 7e 8a 00 00    	imul   $0x8a7e,%eax,%eax
  401460:	89 44 24 dc          	mov    %eax,-0x24(%rsp)
  401464:	8b 44 24 d0          	mov    -0x30(%rsp),%eax
  401468:	69 c0 1c 46 00 00    	imul   $0x461c,%eax,%eax
  40146e:	89 44 24 d0          	mov    %eax,-0x30(%rsp)
  401472:	8b 44 24 c8          	mov    -0x38(%rsp),%eax
  401476:	69 c0 93 93 00 00    	imul   $0x9393,%eax,%eax
  40147c:	89 44 24 c8          	mov    %eax,-0x38(%rsp)
  401480:	8b 44 24 e8          	mov    -0x18(%rsp),%eax
  401484:	69 c0 64 16 00 00    	imul   $0x1664,%eax,%eax
  40148a:	89 44 24 e8          	mov    %eax,-0x18(%rsp)
  40148e:	8b 44 24 e4          	mov    -0x1c(%rsp),%eax
  401492:	69 c0 01 a5 00 00    	imul   $0xa501,%eax,%eax
  401498:	89 44 24 e4          	mov    %eax,-0x1c(%rsp)
  40149c:	8b 44 24 d8          	mov    -0x28(%rsp),%eax
  4014a0:	69 c0 5c 6e 00 00    	imul   $0x6e5c,%eax,%eax
  4014a6:	89 44 24 d8          	mov    %eax,-0x28(%rsp)
  4014aa:	8b 44 24 e8          	mov    -0x18(%rsp),%eax
  4014ae:	69 c0 8d f9 00 00    	imul   $0xf98d,%eax,%eax
  4014b4:	89 44 24 e8          	mov    %eax,-0x18(%rsp)
  4014b8:	8b 44 24 d8          	mov    -0x28(%rsp),%eax
  4014bc:	69 c0 a3 0d 00 00    	imul   $0xda3,%eax,%eax
  4014c2:	89 44 24 d8          	mov    %eax,-0x28(%rsp)
  4014c6:	8b 44 24 e8          	mov    -0x18(%rsp),%eax
  4014ca:	69 c0 44 28 00 00    	imul   $0x2844,%eax,%eax
  4014d0:	89 44 24 e8          	mov    %eax,-0x18(%rsp)
  4014d4:	8b 44 24 ec          	mov    -0x14(%rsp),%eax
  4014d8:	69 c0 25 cb 00 00    	imul   $0xcb25,%eax,%eax
  4014de:	89 44 24 ec          	mov    %eax,-0x14(%rsp)
  4014e2:	8b 44 24 ec          	mov    -0x14(%rsp),%eax
  4014e6:	69 c0 a0 47 00 00    	imul   $0x47a0,%eax,%eax
  4014ec:	89 44 24 ec          	mov    %eax,-0x14(%rsp)
  4014f0:	8b 44 24 cc          	mov    -0x34(%rsp),%eax
  4014f4:	69 c0 15 42 00 00    	imul   $0x4215,%eax,%eax
  4014fa:	89 44 24 cc          	mov    %eax,-0x34(%rsp)
  4014fe:	8b 44 24 d0          	mov    -0x30(%rsp),%eax
  401502:	69 c0 72 aa 00 00    	imul   $0xaa72,%eax,%eax
  401508:	89 44 24 d0          	mov    %eax,-0x30(%rsp)
  40150c:	8b 44 24 d4          	mov    -0x2c(%rsp),%eax
  401510:	69 c0 6a d4 00 00    	imul   $0xd46a,%eax,%eax
  401516:	89 44 24 d4          	mov    %eax,-0x2c(%rsp)
  40151a:	8b 44 24 e4          	mov    -0x1c(%rsp),%eax
  40151e:	69 c0 55 3d 00 00    	imul   $0x3d55,%eax,%eax
  401524:	89 44 24 e4          	mov    %eax,-0x1c(%rsp)
  401528:	8b 44 24 dc          	mov    -0x24(%rsp),%eax
  40152c:	69 c0 87 43 00 00    	imul   $0x4387,%eax,%eax
  401532:	89 44 24 dc          	mov    %eax,-0x24(%rsp)
  401536:	8b 44 24 e4          	mov    -0x1c(%rsp),%eax
  40153a:	69 c0 0c 74 00 00    	imul   $0x740c,%eax,%eax
  401540:	89 44 24 e4          	mov    %eax,-0x1c(%rsp)
  401544:	8b 44 24 e0          	mov    -0x20(%rsp),%eax
  401548:	69 c0 9b 73 00 00    	imul   $0x739b,%eax,%eax
  40154e:	89 44 24 e0          	mov    %eax,-0x20(%rsp)
  401552:	8b 44 24 e4          	mov    -0x1c(%rsp),%eax
  401556:	69 c0 a7 40 00 00    	imul   $0x40a7,%eax,%eax
  40155c:	89 44 24 e4          	mov    %eax,-0x1c(%rsp)
  401560:	8b 44 24 dc          	mov    -0x24(%rsp),%eax
  401564:	69 c0 b0 0f 00 00    	imul   $0xfb0,%eax,%eax
  40156a:	89 44 24 dc          	mov    %eax,-0x24(%rsp)
  40156e:	8b 44 24 e0          	mov    -0x20(%rsp),%eax
  401572:	69 c0 ed 4a 00 00    	imul   $0x4aed,%eax,%eax
  401578:	89 44 24 e0          	mov    %eax,-0x20(%rsp)
  40157c:	8b 44 24 e0          	mov    -0x20(%rsp),%eax
  401580:	69 c0 6d 4a 00 00    	imul   $0x4a6d,%eax,%eax
  401586:	89 44 24 e0          	mov    %eax,-0x20(%rsp)
  40158a:	8b 44 24 cc          	mov    -0x34(%rsp),%eax
  40158e:	89 c2                	mov    %eax,%edx
  401590:	c1 e2 05             	shl    $0x5,%edx
  401593:	c1 e0 0b             	shl    $0xb,%eax
  401596:	29 d0                	sub    %edx,%eax
  401598:	89 44 24 cc          	mov    %eax,-0x34(%rsp)
  40159c:	8b 44 24 e4          	mov    -0x1c(%rsp),%eax
  4015a0:	69 c0 b6 f0 00 00    	imul   $0xf0b6,%eax,%eax
  4015a6:	89 44 24 e4          	mov    %eax,-0x1c(%rsp)
  4015aa:	8b 44 24 d8          	mov    -0x28(%rsp),%eax
  4015ae:	69 c0 41 97 00 00    	imul   $0x9741,%eax,%eax
  4015b4:	89 44 24 d8          	mov    %eax,-0x28(%rsp)
  4015b8:	8b 44 24 d4          	mov    -0x2c(%rsp),%eax
  4015bc:	69 c0 b8 6a 00 00    	imul   $0x6ab8,%eax,%eax
  4015c2:	89 44 24 d4          	mov    %eax,-0x2c(%rsp)
  4015c6:	8b 44 24 e8          	mov    -0x18(%rsp),%eax
  4015ca:	69 c0 25 d5 00 00    	imul   $0xd525,%eax,%eax
  4015d0:	89 44 24 e8          	mov    %eax,-0x18(%rsp)
  4015d4:	8b 44 24 cc          	mov    -0x34(%rsp),%eax
  4015d8:	69 c0 0e 62 00 00    	imul   $0x620e,%eax,%eax
  4015de:	89 44 24 cc          	mov    %eax,-0x34(%rsp)
  4015e2:	8b 44 24 d4          	mov    -0x2c(%rsp),%eax
  4015e6:	69 c0 e0 42 00 00    	imul   $0x42e0,%eax,%eax
  4015ec:	89 44 24 d4          	mov    %eax,-0x2c(%rsp)
  4015f0:	8b 44 24 cc          	mov    -0x34(%rsp),%eax
  4015f4:	69 c0 38 d3 00 00    	imul   $0xd338,%eax,%eax
  4015fa:	89 44 24 cc          	mov    %eax,-0x34(%rsp)
  4015fe:	8b 44 24 e0          	mov    -0x20(%rsp),%eax
  401602:	69 c0 88 27 00 00    	imul   $0x2788,%eax,%eax
  401608:	89 44 24 e0          	mov    %eax,-0x20(%rsp)
  40160c:	8b 44 24 dc          	mov    -0x24(%rsp),%eax
  401610:	69 c0 09 48 00 00    	imul   $0x4809,%eax,%eax
  401616:	89 44 24 dc          	mov    %eax,-0x24(%rsp)
  40161a:	8b 44 24 e0          	mov    -0x20(%rsp),%eax
  40161e:	69 c0 63 a0 00 00    	imul   $0xa063,%eax,%eax
  401624:	89 44 24 e0          	mov    %eax,-0x20(%rsp)
  401628:	8b 44 24 d4          	mov    -0x2c(%rsp),%eax
  40162c:	69 c0 35 a3 00 00    	imul   $0xa335,%eax,%eax
  401632:	89 44 24 d4          	mov    %eax,-0x2c(%rsp)
  401636:	8b 44 24 e4          	mov    -0x1c(%rsp),%eax
  40163a:	69 c0 a4 45 00 00    	imul   $0x45a4,%eax,%eax
  401640:	89 44 24 e4          	mov    %eax,-0x1c(%rsp)
  401644:	8b 44 24 d4          	mov    -0x2c(%rsp),%eax
  401648:	69 c0 b4 c6 00 00    	imul   $0xc6b4,%eax,%eax
  40164e:	89 44 24 d4          	mov    %eax,-0x2c(%rsp)
  401652:	8b 44 24 ec          	mov    -0x14(%rsp),%eax
  401656:	69 c0 f1 30 00 00    	imul   $0x30f1,%eax,%eax
  40165c:	89 44 24 ec          	mov    %eax,-0x14(%rsp)
  401660:	8b 44 24 d0          	mov    -0x30(%rsp),%eax
  401664:	69 c0 0b d5 00 00    	imul   $0xd50b,%eax,%eax
  40166a:	89 44 24 d0          	mov    %eax,-0x30(%rsp)
  40166e:	8b 44 24 d4          	mov    -0x2c(%rsp),%eax
  401672:	69 c0 32 69 00 00    	imul   $0x6932,%eax,%eax
  401678:	89 44 24 d4          	mov    %eax,-0x2c(%rsp)
  40167c:	8b 44 24 d8          	mov    -0x28(%rsp),%eax
  401680:	69 c0 f7 68 00 00    	imul   $0x68f7,%eax,%eax
  401686:	89 44 24 d8          	mov    %eax,-0x28(%rsp)
  40168a:	8b 44 24 dc          	mov    -0x24(%rsp),%eax
  40168e:	69 c0 9d 81 00 00    	imul   $0x819d,%eax,%eax
  401694:	89 44 24 dc          	mov    %eax,-0x24(%rsp)
  401698:	8b 44 24 d4          	mov    -0x2c(%rsp),%eax
  40169c:	69 c0 55 df 00 00    	imul   $0xdf55,%eax,%eax
  4016a2:	89 44 24 d4          	mov    %eax,-0x2c(%rsp)
  4016a6:	8b 44 24 e0          	mov    -0x20(%rsp),%eax
  4016aa:	69 c0 7d 80 00 00    	imul   $0x807d,%eax,%eax
  4016b0:	89 44 24 e0          	mov    %eax,-0x20(%rsp)
  4016b4:	8b 44 24 e8          	mov    -0x18(%rsp),%eax
  4016b8:	69 c0 5a d6 00 00    	imul   $0xd65a,%eax,%eax
  4016be:	89 44 24 e8          	mov    %eax,-0x18(%rsp)
  4016c2:	8b 44 24 d4          	mov    -0x2c(%rsp),%eax
  4016c6:	69 c0 dd 77 00 00    	imul   $0x77dd,%eax,%eax
  4016cc:	89 44 24 d4          	mov    %eax,-0x2c(%rsp)
  4016d0:	8b 44 24 cc          	mov    -0x34(%rsp),%eax
  4016d4:	69 c0 93 43 00 00    	imul   $0x4393,%eax,%eax
  4016da:	89 44 24 cc          	mov    %eax,-0x34(%rsp)
  4016de:	8b 44 24 e8          	mov    -0x18(%rsp),%eax
  4016e2:	69 c0 53 c0 00 00    	imul   $0xc053,%eax,%eax
  4016e8:	89 44 24 e8          	mov    %eax,-0x18(%rsp)
  4016ec:	8b 44 24 d8          	mov    -0x28(%rsp),%eax
  4016f0:	69 c0 fa 3a 00 00    	imul   $0x3afa,%eax,%eax
  4016f6:	89 44 24 d8          	mov    %eax,-0x28(%rsp)
  4016fa:	8b 44 24 ec          	mov    -0x14(%rsp),%eax
  4016fe:	69 c0 41 47 00 00    	imul   $0x4741,%eax,%eax
  401704:	89 44 24 ec          	mov    %eax,-0x14(%rsp)
  401708:	8b 44 24 d4          	mov    -0x2c(%rsp),%eax
  40170c:	69 c0 c1 41 00 00    	imul   $0x41c1,%eax,%eax
  401712:	89 44 24 d4          	mov    %eax,-0x2c(%rsp)
  401716:	8b 44 24 e4          	mov    -0x1c(%rsp),%eax
  40171a:	69 c0 14 91 00 00    	imul   $0x9114,%eax,%eax
  401720:	89 44 24 e4          	mov    %eax,-0x1c(%rsp)
  401724:	8b 44 24 d0          	mov    -0x30(%rsp),%eax
  401728:	69 c0 76 1d 00 00    	imul   $0x1d76,%eax,%eax
  40172e:	89 44 24 d0          	mov    %eax,-0x30(%rsp)
  401732:	8b 44 24 ec          	mov    -0x14(%rsp),%eax
  401736:	69 c0 97 19 00 00    	imul   $0x1997,%eax,%eax
  40173c:	89 44 24 ec          	mov    %eax,-0x14(%rsp)
  401740:	8b 44 24 cc          	mov    -0x34(%rsp),%eax
  401744:	69 c0 d8 fa 00 00    	imul   $0xfad8,%eax,%eax
  40174a:	89 44 24 cc          	mov    %eax,-0x34(%rsp)
  40174e:	8b 44 24 d4          	mov    -0x2c(%rsp),%eax
  401752:	69 c0 42 b8 00 00    	imul   $0xb842,%eax,%eax
  401758:	89 44 24 d4          	mov    %eax,-0x2c(%rsp)
  40175c:	8b 44 24 d0          	mov    -0x30(%rsp),%eax
  401760:	69 c0 3d 83 00 00    	imul   $0x833d,%eax,%eax
  401766:	89 44 24 d0          	mov    %eax,-0x30(%rsp)
  40176a:	8b 44 24 ec          	mov    -0x14(%rsp),%eax
  40176e:	69 c0 7e 37 00 00    	imul   $0x377e,%eax,%eax
  401774:	89 44 24 ec          	mov    %eax,-0x14(%rsp)
  401778:	8b 44 24 e0          	mov    -0x20(%rsp),%eax
  40177c:	69 c0 a3 90 00 00    	imul   $0x90a3,%eax,%eax
  401782:	89 44 24 e0          	mov    %eax,-0x20(%rsp)
  401786:	8b 44 24 dc          	mov    -0x24(%rsp),%eax
  40178a:	69 c0 f7 a3 00 00    	imul   $0xa3f7,%eax,%eax
  401790:	89 44 24 dc          	mov    %eax,-0x24(%rsp)
  401794:	8b 44 24 e8          	mov    -0x18(%rsp),%eax
  401798:	69 c0 5a 7b 00 00    	imul   $0x7b5a,%eax,%eax
  40179e:	89 44 24 e8          	mov    %eax,-0x18(%rsp)
  4017a2:	8b 44 24 d4          	mov    -0x2c(%rsp),%eax
  4017a6:	69 c0 90 10 00 00    	imul   $0x1090,%eax,%eax
  4017ac:	89 44 24 d4          	mov    %eax,-0x2c(%rsp)
  4017b0:	8b 44 24 ec          	mov    -0x14(%rsp),%eax
  4017b4:	69 c0 39 bb 00 00    	imul   $0xbb39,%eax,%eax
  4017ba:	89 44 24 ec          	mov    %eax,-0x14(%rsp)
  4017be:	8b 44 24 e8          	mov    -0x18(%rsp),%eax
  4017c2:	69 c0 8a 4a 00 00    	imul   $0x4a8a,%eax,%eax
  4017c8:	89 44 24 e8          	mov    %eax,-0x18(%rsp)
  4017cc:	8b 44 24 cc          	mov    -0x34(%rsp),%eax
  4017d0:	69 c0 9a 31 00 00    	imul   $0x319a,%eax,%eax
  4017d6:	89 44 24 cc          	mov    %eax,-0x34(%rsp)
  4017da:	8b 44 24 dc          	mov    -0x24(%rsp),%eax
  4017de:	69 c0 63 d4 00 00    	imul   $0xd463,%eax,%eax
  4017e4:	89 44 24 dc          	mov    %eax,-0x24(%rsp)
  4017e8:	8b 44 24 e0          	mov    -0x20(%rsp),%eax
  4017ec:	69 c0 b0 1e 00 00    	imul   $0x1eb0,%eax,%eax
  4017f2:	89 44 24 e0          	mov    %eax,-0x20(%rsp)
  4017f6:	8b 44 24 d8          	mov    -0x28(%rsp),%eax
  4017fa:	69 c0 d1 7b 00 00    	imul   $0x7bd1,%eax,%eax
  401800:	89 44 24 d8          	mov    %eax,-0x28(%rsp)
  401804:	8b 44 24 d8          	mov    -0x28(%rsp),%eax
  401808:	69 c0 7e 27 00 00    	imul   $0x277e,%eax,%eax
  40180e:	89 44 24 d8          	mov    %eax,-0x28(%rsp)
  401812:	8b 44 24 d8          	mov    -0x28(%rsp),%eax
  401816:	69 c0 a7 2e 00 00    	imul   $0x2ea7,%eax,%eax
  40181c:	89 44 24 d8          	mov    %eax,-0x28(%rsp)
  401820:	8b 44 24 ec          	mov    -0x14(%rsp),%eax
  401824:	69 c0 31 18 00 00    	imul   $0x1831,%eax,%eax
  40182a:	89 44 24 ec          	mov    %eax,-0x14(%rsp)
  40182e:	8b 44 24 dc          	mov    -0x24(%rsp),%eax
  401832:	69 c0 25 86 00 00    	imul   $0x8625,%eax,%eax
  401838:	89 44 24 dc          	mov    %eax,-0x24(%rsp)
  40183c:	8b 44 24 e4          	mov    -0x1c(%rsp),%eax
  401840:	69 c0 c9 20 00 00    	imul   $0x20c9,%eax,%eax
  401846:	89 44 24 e4          	mov    %eax,-0x1c(%rsp)
  40184a:	8b 44 24 c8          	mov    -0x38(%rsp),%eax
  40184e:	69 c0 02 fe 00 00    	imul   $0xfe02,%eax,%eax
  401854:	89 44 24 c8          	mov    %eax,-0x38(%rsp)
  401858:	8b 44 24 d4          	mov    -0x2c(%rsp),%eax
  40185c:	69 c0 9f 75 00 00    	imul   $0x759f,%eax,%eax
  401862:	89 44 24 d4          	mov    %eax,-0x2c(%rsp)
  401866:	8b 44 24 ec          	mov    -0x14(%rsp),%eax
  40186a:	69 c0 6a 18 00 00    	imul   $0x186a,%eax,%eax
  401870:	89 44 24 ec          	mov    %eax,-0x14(%rsp)
  401874:	8b 44 24 e8          	mov    -0x18(%rsp),%eax
  401878:	69 c0 cd bd 00 00    	imul   $0xbdcd,%eax,%eax
  40187e:	89 44 24 e8          	mov    %eax,-0x18(%rsp)
  401882:	8b 44 24 d8          	mov    -0x28(%rsp),%eax
  401886:	69 c0 e7 af 00 00    	imul   $0xafe7,%eax,%eax
  40188c:	89 44 24 d8          	mov    %eax,-0x28(%rsp)
  401890:	8b 44 24 ec          	mov    -0x14(%rsp),%eax
  401894:	69 c0 de f9 00 00    	imul   $0xf9de,%eax,%eax
  40189a:	89 44 24 ec          	mov    %eax,-0x14(%rsp)
  40189e:	8b 44 24 e0          	mov    -0x20(%rsp),%eax
  4018a2:	69 c0 3a 6f 00 00    	imul   $0x6f3a,%eax,%eax
  4018a8:	89 44 24 e0          	mov    %eax,-0x20(%rsp)
  4018ac:	8b 44 24 d0          	mov    -0x30(%rsp),%eax
  4018b0:	69 c0 3c 8c 00 00    	imul   $0x8c3c,%eax,%eax
  4018b6:	89 44 24 d0          	mov    %eax,-0x30(%rsp)
  4018ba:	8b 44 24 e8          	mov    -0x18(%rsp),%eax
  4018be:	69 c0 d3 9e 00 00    	imul   $0x9ed3,%eax,%eax
  4018c4:	89 44 24 e8          	mov    %eax,-0x18(%rsp)
  4018c8:	8b 44 24 e0          	mov    -0x20(%rsp),%eax
  4018cc:	69 c0 16 a9 00 00    	imul   $0xa916,%eax,%eax
  4018d2:	89 44 24 e0          	mov    %eax,-0x20(%rsp)
  4018d6:	8b 44 24 c8          	mov    -0x38(%rsp),%eax
  4018da:	69 c0 12 e7 00 00    	imul   $0xe712,%eax,%eax
  4018e0:	89 44 24 c8          	mov    %eax,-0x38(%rsp)
  4018e4:	8b 44 24 ec          	mov    -0x14(%rsp),%eax
  4018e8:	69 c0 0c b0 00 00    	imul   $0xb00c,%eax,%eax
  4018ee:	89 44 24 ec          	mov    %eax,-0x14(%rsp)
  4018f2:	ba 00 00 00 00       	mov    $0x0,%edx
  4018f7:	b8 00 00 00 00       	mov    $0x0,%eax
  4018fc:	eb 0b                	jmp    401909 <scramble+0x56a>
  4018fe:	89 d1                	mov    %edx,%ecx
  401900:	8b 4c 8c c8          	mov    -0x38(%rsp,%rcx,4),%ecx
  401904:	01 c8                	add    %ecx,%eax
  401906:	83 c2 01             	add    $0x1,%edx
  401909:	83 fa 09             	cmp    $0x9,%edx
  40190c:	76 f0                	jbe    4018fe <scramble+0x55f>
  40190e:	f3 c3                	repz retq 

0000000000401910 <getbuf>:
  401910:	48 83 ec 18          	sub    $0x18,%rsp
  401914:	48 89 e7             	mov    %rsp,%rdi
  401917:	e8 a0 03 00 00       	callq  401cbc <Gets>
  40191c:	b8 01 00 00 00       	mov    $0x1,%eax
  401921:	48 83 c4 18          	add    $0x18,%rsp
  401925:	c3                   	retq   

0000000000401926 <touch1>:
  401926:	48 83 ec 08          	sub    $0x8,%rsp
  40192a:	c7 05 e8 3b 20 00 01 	movl   $0x1,0x203be8(%rip)        # 60551c <vlevel>
  401931:	00 00 00 
  401934:	bf 4b 33 40 00       	mov    $0x40334b,%edi
  401939:	e8 a2 f3 ff ff       	callq  400ce0 <puts@plt>
  40193e:	bf 01 00 00 00       	mov    $0x1,%edi
  401943:	e8 b9 05 00 00       	callq  401f01 <validate>
  401948:	bf 00 00 00 00       	mov    $0x0,%edi
  40194d:	e8 1e f5 ff ff       	callq  400e70 <exit@plt>

0000000000401952 <touch2>:
  401952:	48 83 ec 08          	sub    $0x8,%rsp
  401956:	89 fa                	mov    %edi,%edx
  401958:	c7 05 ba 3b 20 00 02 	movl   $0x2,0x203bba(%rip)        # 60551c <vlevel>
  40195f:	00 00 00 
  401962:	39 3d bc 3b 20 00    	cmp    %edi,0x203bbc(%rip)        # 605524 <cookie>
  401968:	75 20                	jne    40198a <touch2+0x38>
  40196a:	be 70 33 40 00       	mov    $0x403370,%esi
  40196f:	bf 01 00 00 00       	mov    $0x1,%edi
  401974:	b8 00 00 00 00       	mov    $0x0,%eax
  401979:	e8 a2 f4 ff ff       	callq  400e20 <__printf_chk@plt>
  40197e:	bf 02 00 00 00       	mov    $0x2,%edi
  401983:	e8 79 05 00 00       	callq  401f01 <validate>
  401988:	eb 1e                	jmp    4019a8 <touch2+0x56>
  40198a:	be 98 33 40 00       	mov    $0x403398,%esi
  40198f:	bf 01 00 00 00       	mov    $0x1,%edi
  401994:	b8 00 00 00 00       	mov    $0x0,%eax
  401999:	e8 82 f4 ff ff       	callq  400e20 <__printf_chk@plt>
  40199e:	bf 02 00 00 00       	mov    $0x2,%edi
  4019a3:	e8 1b 06 00 00       	callq  401fc3 <fail>
  4019a8:	bf 00 00 00 00       	mov    $0x0,%edi
  4019ad:	e8 be f4 ff ff       	callq  400e70 <exit@plt>

00000000004019b2 <hexmatch>:
  4019b2:	41 54                	push   %r12
  4019b4:	55                   	push   %rbp
  4019b5:	53                   	push   %rbx
  4019b6:	48 83 c4 80          	add    $0xffffffffffffff80,%rsp
  4019ba:	89 fd                	mov    %edi,%ebp
  4019bc:	48 89 f3             	mov    %rsi,%rbx
  4019bf:	64 48 8b 04 25 28 00 	mov    %fs:0x28,%rax
  4019c6:	00 00 
  4019c8:	48 89 44 24 78       	mov    %rax,0x78(%rsp)
  4019cd:	31 c0                	xor    %eax,%eax
  4019cf:	e8 0c f4 ff ff       	callq  400de0 <random@plt>
  4019d4:	48 89 c1             	mov    %rax,%rcx
  4019d7:	48 ba 0b d7 a3 70 3d 	movabs $0xa3d70a3d70a3d70b,%rdx
  4019de:	0a d7 a3 
  4019e1:	48 f7 ea             	imul   %rdx
  4019e4:	48 01 ca             	add    %rcx,%rdx
  4019e7:	48 c1 fa 06          	sar    $0x6,%rdx
  4019eb:	48 89 c8             	mov    %rcx,%rax
  4019ee:	48 c1 f8 3f          	sar    $0x3f,%rax
  4019f2:	48 29 c2             	sub    %rax,%rdx
  4019f5:	48 8d 04 92          	lea    (%rdx,%rdx,4),%rax
  4019f9:	48 8d 14 80          	lea    (%rax,%rax,4),%rdx
  4019fd:	48 8d 04 95 00 00 00 	lea    0x0(,%rdx,4),%rax
  401a04:	00 
  401a05:	48 29 c1             	sub    %rax,%rcx
  401a08:	4c 8d 24 0c          	lea    (%rsp,%rcx,1),%r12
  401a0c:	41 89 e8             	mov    %ebp,%r8d
  401a0f:	b9 68 33 40 00       	mov    $0x403368,%ecx
  401a14:	48 c7 c2 ff ff ff ff 	mov    $0xffffffffffffffff,%rdx
  401a1b:	be 01 00 00 00       	mov    $0x1,%esi
  401a20:	4c 89 e7             	mov    %r12,%rdi
  401a23:	b8 00 00 00 00       	mov    $0x0,%eax
  401a28:	e8 73 f4 ff ff       	callq  400ea0 <__sprintf_chk@plt>
  401a2d:	ba 09 00 00 00       	mov    $0x9,%edx
  401a32:	4c 89 e6             	mov    %r12,%rsi
  401a35:	48 89 df             	mov    %rbx,%rdi
  401a38:	e8 83 f2 ff ff       	callq  400cc0 <strncmp@plt>
  401a3d:	85 c0                	test   %eax,%eax
  401a3f:	0f 94 c0             	sete   %al
  401a42:	48 8b 5c 24 78       	mov    0x78(%rsp),%rbx
  401a47:	64 48 33 1c 25 28 00 	xor    %fs:0x28,%rbx
  401a4e:	00 00 
  401a50:	74 05                	je     401a57 <hexmatch+0xa5>
  401a52:	e8 a9 f2 ff ff       	callq  400d00 <__stack_chk_fail@plt>
  401a57:	0f b6 c0             	movzbl %al,%eax
  401a5a:	48 83 ec 80          	sub    $0xffffffffffffff80,%rsp
  401a5e:	5b                   	pop    %rbx
  401a5f:	5d                   	pop    %rbp
  401a60:	41 5c                	pop    %r12
  401a62:	c3                   	retq   

0000000000401a63 <touch3>:
  401a63:	53                   	push   %rbx
  401a64:	48 89 fb             	mov    %rdi,%rbx
  401a67:	c7 05 ab 3a 20 00 03 	movl   $0x3,0x203aab(%rip)        # 60551c <vlevel>
  401a6e:	00 00 00 
  401a71:	48 89 fe             	mov    %rdi,%rsi
  401a74:	8b 3d aa 3a 20 00    	mov    0x203aaa(%rip),%edi        # 605524 <cookie>
  401a7a:	e8 33 ff ff ff       	callq  4019b2 <hexmatch>
  401a7f:	85 c0                	test   %eax,%eax
  401a81:	74 23                	je     401aa6 <touch3+0x43>
  401a83:	48 89 da             	mov    %rbx,%rdx
  401a86:	be c0 33 40 00       	mov    $0x4033c0,%esi
  401a8b:	bf 01 00 00 00       	mov    $0x1,%edi
  401a90:	b8 00 00 00 00       	mov    $0x0,%eax
  401a95:	e8 86 f3 ff ff       	callq  400e20 <__printf_chk@plt>
  401a9a:	bf 03 00 00 00       	mov    $0x3,%edi
  401a9f:	e8 5d 04 00 00       	callq  401f01 <validate>
  401aa4:	eb 21                	jmp    401ac7 <touch3+0x64>
  401aa6:	48 89 da             	mov    %rbx,%rdx
  401aa9:	be e8 33 40 00       	mov    $0x4033e8,%esi
  401aae:	bf 01 00 00 00       	mov    $0x1,%edi
  401ab3:	b8 00 00 00 00       	mov    $0x0,%eax
  401ab8:	e8 63 f3 ff ff       	callq  400e20 <__printf_chk@plt>
  401abd:	bf 03 00 00 00       	mov    $0x3,%edi
  401ac2:	e8 fc 04 00 00       	callq  401fc3 <fail>
  401ac7:	bf 00 00 00 00       	mov    $0x0,%edi
  401acc:	e8 9f f3 ff ff       	callq  400e70 <exit@plt>

0000000000401ad1 <test>:
  401ad1:	48 83 ec 08          	sub    $0x8,%rsp
  401ad5:	b8 00 00 00 00       	mov    $0x0,%eax
  401ada:	e8 31 fe ff ff       	callq  401910 <getbuf>
  401adf:	89 c2                	mov    %eax,%edx
  401ae1:	be 10 34 40 00       	mov    $0x403410,%esi
  401ae6:	bf 01 00 00 00       	mov    $0x1,%edi
  401aeb:	b8 00 00 00 00       	mov    $0x0,%eax
  401af0:	e8 2b f3 ff ff       	callq  400e20 <__printf_chk@plt>
  401af5:	48 83 c4 08          	add    $0x8,%rsp
  401af9:	c3                   	retq   

0000000000401afa <start_farm>:
  401afa:	b8 01 00 00 00       	mov    $0x1,%eax
  401aff:	c3                   	retq   

0000000000401b00 <getval_280>:
  401b00:	b8 50 87 58 90       	mov    $0x90588750,%eax
  401b05:	c3                   	retq   

0000000000401b06 <setval_111>:
  401b06:	c7 07 48 89 c7 c3    	movl   $0xc3c78948,(%rdi)
  401b0c:	c3                   	retq   

0000000000401b0d <setval_315>:
  401b0d:	c7 07 48 89 c7 91    	movl   $0x91c78948,(%rdi)
  401b13:	c3                   	retq   

0000000000401b14 <addval_168>:
  401b14:	8d 87 01 d8 90 c3    	lea    -0x3c6f27ff(%rdi),%eax
  401b1a:	c3                   	retq   

0000000000401b1b <getval_230>:
  401b1b:	b8 48 89 c7 c1       	mov    $0xc1c78948,%eax
  401b20:	c3                   	retq   

0000000000401b21 <addval_236>:
  401b21:	8d 87 48 89 c7 c3    	lea    -0x3c3876b8(%rdi),%eax
  401b27:	c3                   	retq   

0000000000401b28 <getval_317>:
  401b28:	b8 50 58 90 90       	mov    $0x90905850,%eax
  401b2d:	c3                   	retq   

0000000000401b2e <setval_277>:
  401b2e:	c7 07 ec 18 90 c3    	movl   $0xc39018ec,(%rdi)
  401b34:	c3                   	retq   

0000000000401b35 <mid_farm>:
  401b35:	b8 01 00 00 00       	mov    $0x1,%eax
  401b3a:	c3                   	retq   

0000000000401b3b <add_xy>:
  401b3b:	48 8d 04 37          	lea    (%rdi,%rsi,1),%rax
  401b3f:	c3                   	retq   

0000000000401b40 <setval_183>:
  401b40:	c7 07 48 c9 e0 c3    	movl   $0xc3e0c948,(%rdi)
  401b46:	c3                   	retq   

0000000000401b47 <setval_227>:
  401b47:	c7 07 48 89 e0 90    	movl   $0x90e08948,(%rdi)
  401b4d:	c3                   	retq   

0000000000401b4e <getval_117>:
  401b4e:	b8 a9 c2 20 c9       	mov    $0xc920c2a9,%eax
  401b53:	c3                   	retq   

0000000000401b54 <addval_468>:
  401b54:	8d 87 8d ce 84 d2    	lea    -0x2d7b3173(%rdi),%eax
  401b5a:	c3                   	retq   

0000000000401b5b <setval_243>:
  401b5b:	c7 07 4c 89 e0 c3    	movl   $0xc3e0894c,(%rdi)
  401b61:	c3                   	retq   

0000000000401b62 <getval_372>:
  401b62:	b8 99 c2 84 c0       	mov    $0xc084c299,%eax
  401b67:	c3                   	retq   

0000000000401b68 <setval_265>:
  401b68:	c7 07 81 c2 90 c3    	movl   $0xc390c281,(%rdi)
  401b6e:	c3                   	retq   

0000000000401b6f <getval_161>:
  401b6f:	b8 89 ce 18 c0       	mov    $0xc018ce89,%eax
  401b74:	c3                   	retq   

0000000000401b75 <addval_281>:
  401b75:	8d 87 89 ce 90 c1    	lea    -0x3e6f3177(%rdi),%eax
  401b7b:	c3                   	retq   

0000000000401b7c <getval_357>:
  401b7c:	b8 89 d1 c4 db       	mov    $0xdbc4d189,%eax
  401b81:	c3                   	retq   

0000000000401b82 <addval_192>:
  401b82:	8d 87 89 c2 94 90    	lea    -0x6f6b3d77(%rdi),%eax
  401b88:	c3                   	retq   

0000000000401b89 <setval_342>:
  401b89:	c7 07 89 d1 92 c3    	movl   $0xc392d189,(%rdi)
  401b8f:	c3                   	retq   

0000000000401b90 <addval_289>:
  401b90:	8d 87 c9 ce 20 c9    	lea    -0x36df3137(%rdi),%eax
  401b96:	c3                   	retq   

0000000000401b97 <addval_276>:
  401b97:	8d 87 89 ce 84 db    	lea    -0x247b3177(%rdi),%eax
  401b9d:	c3                   	retq   

0000000000401b9e <addval_328>:
  401b9e:	8d 87 48 89 e0 90    	lea    -0x6f1f76b8(%rdi),%eax
  401ba4:	c3                   	retq   

0000000000401ba5 <setval_316>:
  401ba5:	c7 07 89 ce 18 db    	movl   $0xdb18ce89,(%rdi)
  401bab:	c3                   	retq   

0000000000401bac <addval_235>:
  401bac:	8d 87 e0 8b c2 c3    	lea    -0x3c3d7420(%rdi),%eax
  401bb2:	c3                   	retq   

0000000000401bb3 <getval_283>:
  401bb3:	b8 48 89 e0 91       	mov    $0x91e08948,%eax
  401bb8:	c3                   	retq   

0000000000401bb9 <getval_162>:
  401bb9:	b8 82 89 ce 90       	mov    $0x90ce8982,%eax
  401bbe:	c3                   	retq   

0000000000401bbf <addval_199>:
  401bbf:	8d 87 48 89 e0 92    	lea    -0x6d1f76b8(%rdi),%eax
  401bc5:	c3                   	retq   

0000000000401bc6 <addval_324>:
  401bc6:	8d 87 89 d1 18 db    	lea    -0x24e72e77(%rdi),%eax
  401bcc:	c3                   	retq   

0000000000401bcd <getval_196>:
  401bcd:	b8 89 ce 60 c0       	mov    $0xc060ce89,%eax
  401bd2:	c3                   	retq   

0000000000401bd3 <setval_318>:
  401bd3:	c7 07 88 d1 38 c9    	movl   $0xc938d188,(%rdi)
  401bd9:	c3                   	retq   

0000000000401bda <getval_482>:
  401bda:	b8 89 d1 08 db       	mov    $0xdb08d189,%eax
  401bdf:	c3                   	retq   

0000000000401be0 <addval_294>:
  401be0:	8d 87 48 8b e0 90    	lea    -0x6f1f74b8(%rdi),%eax
  401be6:	c3                   	retq   

0000000000401be7 <addval_275>:
  401be7:	8d 87 99 d1 84 c0    	lea    -0x3f7b2e67(%rdi),%eax
  401bed:	c3                   	retq   

0000000000401bee <addval_237>:
  401bee:	8d 87 b8 89 c2 90    	lea    -0x6f3d7648(%rdi),%eax
  401bf4:	c3                   	retq   

0000000000401bf5 <addval_436>:
  401bf5:	8d 87 89 d1 48 db    	lea    -0x24b72e77(%rdi),%eax
  401bfb:	c3                   	retq   

0000000000401bfc <setval_433>:
  401bfc:	c7 07 89 c2 38 c9    	movl   $0xc938c289,(%rdi)
  401c02:	c3                   	retq   

0000000000401c03 <setval_193>:
  401c03:	c7 07 c9 c2 08 d2    	movl   $0xd208c2c9,(%rdi)
  401c09:	c3                   	retq   

0000000000401c0a <getval_473>:
  401c0a:	b8 89 d1 90 c3       	mov    $0xc390d189,%eax
  401c0f:	c3                   	retq   

0000000000401c10 <getval_125>:
  401c10:	b8 48 89 e0 c7       	mov    $0xc7e08948,%eax
  401c15:	c3                   	retq   

0000000000401c16 <end_farm>:
  401c16:	b8 01 00 00 00       	mov    $0x1,%eax
  401c1b:	c3                   	retq   

0000000000401c1c <save_char>:
  401c1c:	8b 05 22 45 20 00    	mov    0x204522(%rip),%eax        # 606144 <gets_cnt>
  401c22:	3d ff 03 00 00       	cmp    $0x3ff,%eax
  401c27:	7f 49                	jg     401c72 <save_char+0x56>
  401c29:	8d 14 40             	lea    (%rax,%rax,2),%edx
  401c2c:	89 f9                	mov    %edi,%ecx
  401c2e:	c0 e9 04             	shr    $0x4,%cl
  401c31:	83 e1 0f             	and    $0xf,%ecx
  401c34:	0f b6 b1 30 37 40 00 	movzbl 0x403730(%rcx),%esi
  401c3b:	48 63 ca             	movslq %edx,%rcx
  401c3e:	40 88 b1 40 55 60 00 	mov    %sil,0x605540(%rcx)
  401c45:	8d 4a 01             	lea    0x1(%rdx),%ecx
  401c48:	83 e7 0f             	and    $0xf,%edi
  401c4b:	0f b6 b7 30 37 40 00 	movzbl 0x403730(%rdi),%esi
  401c52:	48 63 c9             	movslq %ecx,%rcx
  401c55:	40 88 b1 40 55 60 00 	mov    %sil,0x605540(%rcx)
  401c5c:	83 c2 02             	add    $0x2,%edx
  401c5f:	48 63 d2             	movslq %edx,%rdx
  401c62:	c6 82 40 55 60 00 20 	movb   $0x20,0x605540(%rdx)
  401c69:	83 c0 01             	add    $0x1,%eax
  401c6c:	89 05 d2 44 20 00    	mov    %eax,0x2044d2(%rip)        # 606144 <gets_cnt>
  401c72:	f3 c3                	repz retq 

0000000000401c74 <save_term>:
  401c74:	8b 05 ca 44 20 00    	mov    0x2044ca(%rip),%eax        # 606144 <gets_cnt>
  401c7a:	8d 04 40             	lea    (%rax,%rax,2),%eax
  401c7d:	48 98                	cltq   
  401c7f:	c6 80 40 55 60 00 00 	movb   $0x0,0x605540(%rax)
  401c86:	c3                   	retq   

0000000000401c87 <check_fail>:
  401c87:	48 83 ec 08          	sub    $0x8,%rsp
  401c8b:	0f be 15 b6 44 20 00 	movsbl 0x2044b6(%rip),%edx        # 606148 <target_prefix>
  401c92:	41 b8 40 55 60 00    	mov    $0x605540,%r8d
  401c98:	8b 0d 7a 38 20 00    	mov    0x20387a(%rip),%ecx        # 605518 <check_level>
  401c9e:	be 33 34 40 00       	mov    $0x403433,%esi
  401ca3:	bf 01 00 00 00       	mov    $0x1,%edi
  401ca8:	b8 00 00 00 00       	mov    $0x0,%eax
  401cad:	e8 6e f1 ff ff       	callq  400e20 <__printf_chk@plt>
  401cb2:	bf 01 00 00 00       	mov    $0x1,%edi
  401cb7:	e8 b4 f1 ff ff       	callq  400e70 <exit@plt>

0000000000401cbc <Gets>:
  401cbc:	41 54                	push   %r12
  401cbe:	55                   	push   %rbp
  401cbf:	53                   	push   %rbx
  401cc0:	49 89 fc             	mov    %rdi,%r12
  401cc3:	c7 05 77 44 20 00 00 	movl   $0x0,0x204477(%rip)        # 606144 <gets_cnt>
  401cca:	00 00 00 
  401ccd:	48 89 fb             	mov    %rdi,%rbx
  401cd0:	eb 11                	jmp    401ce3 <Gets+0x27>
  401cd2:	48 8d 6b 01          	lea    0x1(%rbx),%rbp
  401cd6:	88 03                	mov    %al,(%rbx)
  401cd8:	0f b6 f8             	movzbl %al,%edi
  401cdb:	e8 3c ff ff ff       	callq  401c1c <save_char>
  401ce0:	48 89 eb             	mov    %rbp,%rbx
  401ce3:	48 8b 3d 26 38 20 00 	mov    0x203826(%rip),%rdi        # 605510 <infile>
  401cea:	e8 01 f1 ff ff       	callq  400df0 <_IO_getc@plt>
  401cef:	83 f8 ff             	cmp    $0xffffffff,%eax
  401cf2:	74 05                	je     401cf9 <Gets+0x3d>
  401cf4:	83 f8 0a             	cmp    $0xa,%eax
  401cf7:	75 d9                	jne    401cd2 <Gets+0x16>
  401cf9:	c6 03 00             	movb   $0x0,(%rbx)
  401cfc:	b8 00 00 00 00       	mov    $0x0,%eax
  401d01:	e8 6e ff ff ff       	callq  401c74 <save_term>
  401d06:	4c 89 e0             	mov    %r12,%rax
  401d09:	5b                   	pop    %rbx
  401d0a:	5d                   	pop    %rbp
  401d0b:	41 5c                	pop    %r12
  401d0d:	c3                   	retq   

0000000000401d0e <notify_server>:
  401d0e:	53                   	push   %rbx
  401d0f:	48 81 ec 10 40 00 00 	sub    $0x4010,%rsp
  401d16:	64 48 8b 04 25 28 00 	mov    %fs:0x28,%rax
  401d1d:	00 00 
  401d1f:	48 89 84 24 08 40 00 	mov    %rax,0x4008(%rsp)
  401d26:	00 
  401d27:	31 c0                	xor    %eax,%eax
  401d29:	83 3d f8 37 20 00 00 	cmpl   $0x0,0x2037f8(%rip)        # 605528 <is_checker>
  401d30:	0f 85 aa 01 00 00    	jne    401ee0 <notify_server+0x1d2>
  401d36:	89 fb                	mov    %edi,%ebx
  401d38:	8b 05 06 44 20 00    	mov    0x204406(%rip),%eax        # 606144 <gets_cnt>
  401d3e:	83 c0 64             	add    $0x64,%eax
  401d41:	3d 00 20 00 00       	cmp    $0x2000,%eax
  401d46:	7e 1e                	jle    401d66 <notify_server+0x58>
  401d48:	be 68 35 40 00       	mov    $0x403568,%esi
  401d4d:	bf 01 00 00 00       	mov    $0x1,%edi
  401d52:	b8 00 00 00 00       	mov    $0x0,%eax
  401d57:	e8 c4 f0 ff ff       	callq  400e20 <__printf_chk@plt>
  401d5c:	bf 01 00 00 00       	mov    $0x1,%edi
  401d61:	e8 0a f1 ff ff       	callq  400e70 <exit@plt>
  401d66:	0f be 05 db 43 20 00 	movsbl 0x2043db(%rip),%eax        # 606148 <target_prefix>
  401d6d:	83 3d 34 37 20 00 00 	cmpl   $0x0,0x203734(%rip)        # 6054a8 <notify>
  401d74:	74 08                	je     401d7e <notify_server+0x70>
  401d76:	8b 15 a4 37 20 00    	mov    0x2037a4(%rip),%edx        # 605520 <authkey>
  401d7c:	eb 05                	jmp    401d83 <notify_server+0x75>
  401d7e:	ba ff ff ff ff       	mov    $0xffffffff,%edx
  401d83:	85 db                	test   %ebx,%ebx
  401d85:	74 08                	je     401d8f <notify_server+0x81>
  401d87:	41 b9 49 34 40 00    	mov    $0x403449,%r9d
  401d8d:	eb 06                	jmp    401d95 <notify_server+0x87>
  401d8f:	41 b9 4e 34 40 00    	mov    $0x40344e,%r9d
  401d95:	68 40 55 60 00       	pushq  $0x605540
  401d9a:	56                   	push   %rsi
  401d9b:	50                   	push   %rax
  401d9c:	52                   	push   %rdx
  401d9d:	44 8b 05 c4 33 20 00 	mov    0x2033c4(%rip),%r8d        # 605168 <target_id>
  401da4:	b9 53 34 40 00       	mov    $0x403453,%ecx
  401da9:	ba 00 20 00 00       	mov    $0x2000,%edx
  401dae:	be 01 00 00 00       	mov    $0x1,%esi
  401db3:	48 8d 7c 24 20       	lea    0x20(%rsp),%rdi
  401db8:	b8 00 00 00 00       	mov    $0x0,%eax
  401dbd:	e8 de f0 ff ff       	callq  400ea0 <__sprintf_chk@plt>
  401dc2:	48 83 c4 20          	add    $0x20,%rsp
  401dc6:	83 3d db 36 20 00 00 	cmpl   $0x0,0x2036db(%rip)        # 6054a8 <notify>
  401dcd:	0f 84 81 00 00 00    	je     401e54 <notify_server+0x146>
  401dd3:	85 db                	test   %ebx,%ebx
  401dd5:	74 6e                	je     401e45 <notify_server+0x137>
  401dd7:	4c 8d 8c 24 00 20 00 	lea    0x2000(%rsp),%r9
  401dde:	00 
  401ddf:	41 b8 00 00 00 00    	mov    $0x0,%r8d
  401de5:	48 89 e1             	mov    %rsp,%rcx
  401de8:	48 8b 15 81 33 20 00 	mov    0x203381(%rip),%rdx        # 605170 <lab>
  401def:	48 8b 35 82 33 20 00 	mov    0x203382(%rip),%rsi        # 605178 <course>
  401df6:	48 8b 3d 63 33 20 00 	mov    0x203363(%rip),%rdi        # 605160 <user_id>
  401dfd:	e8 bb 10 00 00       	callq  402ebd <driver_post>
  401e02:	85 c0                	test   %eax,%eax
  401e04:	79 26                	jns    401e2c <notify_server+0x11e>
  401e06:	48 8d 94 24 00 20 00 	lea    0x2000(%rsp),%rdx
  401e0d:	00 
  401e0e:	be 6f 34 40 00       	mov    $0x40346f,%esi
  401e13:	bf 01 00 00 00       	mov    $0x1,%edi
  401e18:	b8 00 00 00 00       	mov    $0x0,%eax
  401e1d:	e8 fe ef ff ff       	callq  400e20 <__printf_chk@plt>
  401e22:	bf 01 00 00 00       	mov    $0x1,%edi
  401e27:	e8 44 f0 ff ff       	callq  400e70 <exit@plt>
  401e2c:	bf 98 35 40 00       	mov    $0x403598,%edi
  401e31:	e8 aa ee ff ff       	callq  400ce0 <puts@plt>
  401e36:	bf 7b 34 40 00       	mov    $0x40347b,%edi
  401e3b:	e8 a0 ee ff ff       	callq  400ce0 <puts@plt>
  401e40:	e9 9b 00 00 00       	jmpq   401ee0 <notify_server+0x1d2>
  401e45:	bf 85 34 40 00       	mov    $0x403485,%edi
  401e4a:	e8 91 ee ff ff       	callq  400ce0 <puts@plt>
  401e4f:	e9 8c 00 00 00       	jmpq   401ee0 <notify_server+0x1d2>
  401e54:	85 db                	test   %ebx,%ebx
  401e56:	74 07                	je     401e5f <notify_server+0x151>
  401e58:	ba 49 34 40 00       	mov    $0x403449,%edx
  401e5d:	eb 05                	jmp    401e64 <notify_server+0x156>
  401e5f:	ba 4e 34 40 00       	mov    $0x40344e,%edx
  401e64:	be d0 35 40 00       	mov    $0x4035d0,%esi
  401e69:	bf 01 00 00 00       	mov    $0x1,%edi
  401e6e:	b8 00 00 00 00       	mov    $0x0,%eax
  401e73:	e8 a8 ef ff ff       	callq  400e20 <__printf_chk@plt>
  401e78:	48 8b 15 e1 32 20 00 	mov    0x2032e1(%rip),%rdx        # 605160 <user_id>
  401e7f:	be 8c 34 40 00       	mov    $0x40348c,%esi
  401e84:	bf 01 00 00 00       	mov    $0x1,%edi
  401e89:	b8 00 00 00 00       	mov    $0x0,%eax
  401e8e:	e8 8d ef ff ff       	callq  400e20 <__printf_chk@plt>
  401e93:	48 8b 15 de 32 20 00 	mov    0x2032de(%rip),%rdx        # 605178 <course>
  401e9a:	be 99 34 40 00       	mov    $0x403499,%esi
  401e9f:	bf 01 00 00 00       	mov    $0x1,%edi
  401ea4:	b8 00 00 00 00       	mov    $0x0,%eax
  401ea9:	e8 72 ef ff ff       	callq  400e20 <__printf_chk@plt>
  401eae:	48 8b 15 bb 32 20 00 	mov    0x2032bb(%rip),%rdx        # 605170 <lab>
  401eb5:	be a5 34 40 00       	mov    $0x4034a5,%esi
  401eba:	bf 01 00 00 00       	mov    $0x1,%edi
  401ebf:	b8 00 00 00 00       	mov    $0x0,%eax
  401ec4:	e8 57 ef ff ff       	callq  400e20 <__printf_chk@plt>
  401ec9:	48 89 e2             	mov    %rsp,%rdx
  401ecc:	be ae 34 40 00       	mov    $0x4034ae,%esi
  401ed1:	bf 01 00 00 00       	mov    $0x1,%edi
  401ed6:	b8 00 00 00 00       	mov    $0x0,%eax
  401edb:	e8 40 ef ff ff       	callq  400e20 <__printf_chk@plt>
  401ee0:	48 8b 84 24 08 40 00 	mov    0x4008(%rsp),%rax
  401ee7:	00 
  401ee8:	64 48 33 04 25 28 00 	xor    %fs:0x28,%rax
  401eef:	00 00 
  401ef1:	74 05                	je     401ef8 <notify_server+0x1ea>
  401ef3:	e8 08 ee ff ff       	callq  400d00 <__stack_chk_fail@plt>
  401ef8:	48 81 c4 10 40 00 00 	add    $0x4010,%rsp
  401eff:	5b                   	pop    %rbx
  401f00:	c3                   	retq   

0000000000401f01 <validate>:
  401f01:	53                   	push   %rbx
  401f02:	89 fb                	mov    %edi,%ebx
  401f04:	83 3d 1d 36 20 00 00 	cmpl   $0x0,0x20361d(%rip)        # 605528 <is_checker>
  401f0b:	74 6b                	je     401f78 <validate+0x77>
  401f0d:	39 3d 09 36 20 00    	cmp    %edi,0x203609(%rip)        # 60551c <vlevel>
  401f13:	74 14                	je     401f29 <validate+0x28>
  401f15:	bf ba 34 40 00       	mov    $0x4034ba,%edi
  401f1a:	e8 c1 ed ff ff       	callq  400ce0 <puts@plt>
  401f1f:	b8 00 00 00 00       	mov    $0x0,%eax
  401f24:	e8 5e fd ff ff       	callq  401c87 <check_fail>
  401f29:	8b 15 e9 35 20 00    	mov    0x2035e9(%rip),%edx        # 605518 <check_level>
  401f2f:	39 d7                	cmp    %edx,%edi
  401f31:	74 20                	je     401f53 <validate+0x52>
  401f33:	89 f9                	mov    %edi,%ecx
  401f35:	be f8 35 40 00       	mov    $0x4035f8,%esi
  401f3a:	bf 01 00 00 00       	mov    $0x1,%edi
  401f3f:	b8 00 00 00 00       	mov    $0x0,%eax
  401f44:	e8 d7 ee ff ff       	callq  400e20 <__printf_chk@plt>
  401f49:	b8 00 00 00 00       	mov    $0x0,%eax
  401f4e:	e8 34 fd ff ff       	callq  401c87 <check_fail>
  401f53:	0f be 15 ee 41 20 00 	movsbl 0x2041ee(%rip),%edx        # 606148 <target_prefix>
  401f5a:	41 b8 40 55 60 00    	mov    $0x605540,%r8d
  401f60:	89 f9                	mov    %edi,%ecx
  401f62:	be d8 34 40 00       	mov    $0x4034d8,%esi
  401f67:	bf 01 00 00 00       	mov    $0x1,%edi
  401f6c:	b8 00 00 00 00       	mov    $0x0,%eax
  401f71:	e8 aa ee ff ff       	callq  400e20 <__printf_chk@plt>
  401f76:	eb 49                	jmp    401fc1 <validate+0xc0>
  401f78:	3b 3d 9e 35 20 00    	cmp    0x20359e(%rip),%edi        # 60551c <vlevel>
  401f7e:	74 18                	je     401f98 <validate+0x97>
  401f80:	bf ba 34 40 00       	mov    $0x4034ba,%edi
  401f85:	e8 56 ed ff ff       	callq  400ce0 <puts@plt>
  401f8a:	89 de                	mov    %ebx,%esi
  401f8c:	bf 00 00 00 00       	mov    $0x0,%edi
  401f91:	e8 78 fd ff ff       	callq  401d0e <notify_server>
  401f96:	eb 29                	jmp    401fc1 <validate+0xc0>
  401f98:	0f be 0d a9 41 20 00 	movsbl 0x2041a9(%rip),%ecx        # 606148 <target_prefix>
  401f9f:	89 fa                	mov    %edi,%edx
  401fa1:	be 20 36 40 00       	mov    $0x403620,%esi
  401fa6:	bf 01 00 00 00       	mov    $0x1,%edi
  401fab:	b8 00 00 00 00       	mov    $0x0,%eax
  401fb0:	e8 6b ee ff ff       	callq  400e20 <__printf_chk@plt>
  401fb5:	89 de                	mov    %ebx,%esi
  401fb7:	bf 01 00 00 00       	mov    $0x1,%edi
  401fbc:	e8 4d fd ff ff       	callq  401d0e <notify_server>
  401fc1:	5b                   	pop    %rbx
  401fc2:	c3                   	retq   

0000000000401fc3 <fail>:
  401fc3:	48 83 ec 08          	sub    $0x8,%rsp
  401fc7:	83 3d 5a 35 20 00 00 	cmpl   $0x0,0x20355a(%rip)        # 605528 <is_checker>
  401fce:	74 0a                	je     401fda <fail+0x17>
  401fd0:	b8 00 00 00 00       	mov    $0x0,%eax
  401fd5:	e8 ad fc ff ff       	callq  401c87 <check_fail>
  401fda:	89 fe                	mov    %edi,%esi
  401fdc:	bf 00 00 00 00       	mov    $0x0,%edi
  401fe1:	e8 28 fd ff ff       	callq  401d0e <notify_server>
  401fe6:	48 83 c4 08          	add    $0x8,%rsp
  401fea:	c3                   	retq   

0000000000401feb <bushandler>:
  401feb:	48 83 ec 08          	sub    $0x8,%rsp
  401fef:	83 3d 32 35 20 00 00 	cmpl   $0x0,0x203532(%rip)        # 605528 <is_checker>
  401ff6:	74 14                	je     40200c <bushandler+0x21>
  401ff8:	bf ed 34 40 00       	mov    $0x4034ed,%edi
  401ffd:	e8 de ec ff ff       	callq  400ce0 <puts@plt>
  402002:	b8 00 00 00 00       	mov    $0x0,%eax
  402007:	e8 7b fc ff ff       	callq  401c87 <check_fail>
  40200c:	bf 58 36 40 00       	mov    $0x403658,%edi
  402011:	e8 ca ec ff ff       	callq  400ce0 <puts@plt>
  402016:	bf f7 34 40 00       	mov    $0x4034f7,%edi
  40201b:	e8 c0 ec ff ff       	callq  400ce0 <puts@plt>
  402020:	be 00 00 00 00       	mov    $0x0,%esi
  402025:	bf 00 00 00 00       	mov    $0x0,%edi
  40202a:	e8 df fc ff ff       	callq  401d0e <notify_server>
  40202f:	bf 01 00 00 00       	mov    $0x1,%edi
  402034:	e8 37 ee ff ff       	callq  400e70 <exit@plt>

0000000000402039 <seghandler>:
  402039:	48 83 ec 08          	sub    $0x8,%rsp
  40203d:	83 3d e4 34 20 00 00 	cmpl   $0x0,0x2034e4(%rip)        # 605528 <is_checker>
  402044:	74 14                	je     40205a <seghandler+0x21>
  402046:	bf 0d 35 40 00       	mov    $0x40350d,%edi
  40204b:	e8 90 ec ff ff       	callq  400ce0 <puts@plt>
  402050:	b8 00 00 00 00       	mov    $0x0,%eax
  402055:	e8 2d fc ff ff       	callq  401c87 <check_fail>
  40205a:	bf 78 36 40 00       	mov    $0x403678,%edi
  40205f:	e8 7c ec ff ff       	callq  400ce0 <puts@plt>
  402064:	bf f7 34 40 00       	mov    $0x4034f7,%edi
  402069:	e8 72 ec ff ff       	callq  400ce0 <puts@plt>
  40206e:	be 00 00 00 00       	mov    $0x0,%esi
  402073:	bf 00 00 00 00       	mov    $0x0,%edi
  402078:	e8 91 fc ff ff       	callq  401d0e <notify_server>
  40207d:	bf 01 00 00 00       	mov    $0x1,%edi
  402082:	e8 e9 ed ff ff       	callq  400e70 <exit@plt>

0000000000402087 <illegalhandler>:
  402087:	48 83 ec 08          	sub    $0x8,%rsp
  40208b:	83 3d 96 34 20 00 00 	cmpl   $0x0,0x203496(%rip)        # 605528 <is_checker>
  402092:	74 14                	je     4020a8 <illegalhandler+0x21>
  402094:	bf 20 35 40 00       	mov    $0x403520,%edi
  402099:	e8 42 ec ff ff       	callq  400ce0 <puts@plt>
  40209e:	b8 00 00 00 00       	mov    $0x0,%eax
  4020a3:	e8 df fb ff ff       	callq  401c87 <check_fail>
  4020a8:	bf a0 36 40 00       	mov    $0x4036a0,%edi
  4020ad:	e8 2e ec ff ff       	callq  400ce0 <puts@plt>
  4020b2:	bf f7 34 40 00       	mov    $0x4034f7,%edi
  4020b7:	e8 24 ec ff ff       	callq  400ce0 <puts@plt>
  4020bc:	be 00 00 00 00       	mov    $0x0,%esi
  4020c1:	bf 00 00 00 00       	mov    $0x0,%edi
  4020c6:	e8 43 fc ff ff       	callq  401d0e <notify_server>
  4020cb:	bf 01 00 00 00       	mov    $0x1,%edi
  4020d0:	e8 9b ed ff ff       	callq  400e70 <exit@plt>

00000000004020d5 <sigalrmhandler>:
  4020d5:	48 83 ec 08          	sub    $0x8,%rsp
  4020d9:	83 3d 48 34 20 00 00 	cmpl   $0x0,0x203448(%rip)        # 605528 <is_checker>
  4020e0:	74 14                	je     4020f6 <sigalrmhandler+0x21>
  4020e2:	bf 34 35 40 00       	mov    $0x403534,%edi
  4020e7:	e8 f4 eb ff ff       	callq  400ce0 <puts@plt>
  4020ec:	b8 00 00 00 00       	mov    $0x0,%eax
  4020f1:	e8 91 fb ff ff       	callq  401c87 <check_fail>
  4020f6:	ba 05 00 00 00       	mov    $0x5,%edx
  4020fb:	be d0 36 40 00       	mov    $0x4036d0,%esi
  402100:	bf 01 00 00 00       	mov    $0x1,%edi
  402105:	b8 00 00 00 00       	mov    $0x0,%eax
  40210a:	e8 11 ed ff ff       	callq  400e20 <__printf_chk@plt>
  40210f:	be 00 00 00 00       	mov    $0x0,%esi
  402114:	bf 00 00 00 00       	mov    $0x0,%edi
  402119:	e8 f0 fb ff ff       	callq  401d0e <notify_server>
  40211e:	bf 01 00 00 00       	mov    $0x1,%edi
  402123:	e8 48 ed ff ff       	callq  400e70 <exit@plt>

0000000000402128 <launch>:
  402128:	55                   	push   %rbp
  402129:	48 89 e5             	mov    %rsp,%rbp
  40212c:	48 83 ec 10          	sub    $0x10,%rsp
  402130:	48 89 fa             	mov    %rdi,%rdx
  402133:	64 48 8b 04 25 28 00 	mov    %fs:0x28,%rax
  40213a:	00 00 
  40213c:	48 89 45 f8          	mov    %rax,-0x8(%rbp)
  402140:	31 c0                	xor    %eax,%eax
  402142:	48 8d 47 1e          	lea    0x1e(%rdi),%rax
  402146:	48 83 e0 f0          	and    $0xfffffffffffffff0,%rax
  40214a:	48 29 c4             	sub    %rax,%rsp
  40214d:	48 8d 7c 24 0f       	lea    0xf(%rsp),%rdi
  402152:	48 83 e7 f0          	and    $0xfffffffffffffff0,%rdi
  402156:	be f4 00 00 00       	mov    $0xf4,%esi
  40215b:	e8 c0 eb ff ff       	callq  400d20 <memset@plt>
  402160:	48 8b 05 59 33 20 00 	mov    0x203359(%rip),%rax        # 6054c0 <stdin@@GLIBC_2.2.5>
  402167:	48 39 05 a2 33 20 00 	cmp    %rax,0x2033a2(%rip)        # 605510 <infile>
  40216e:	75 14                	jne    402184 <launch+0x5c>
  402170:	be 3c 35 40 00       	mov    $0x40353c,%esi
  402175:	bf 01 00 00 00       	mov    $0x1,%edi
  40217a:	b8 00 00 00 00       	mov    $0x0,%eax
  40217f:	e8 9c ec ff ff       	callq  400e20 <__printf_chk@plt>
  402184:	c7 05 8e 33 20 00 00 	movl   $0x0,0x20338e(%rip)        # 60551c <vlevel>
  40218b:	00 00 00 
  40218e:	b8 00 00 00 00       	mov    $0x0,%eax
  402193:	e8 39 f9 ff ff       	callq  401ad1 <test>
  402198:	83 3d 89 33 20 00 00 	cmpl   $0x0,0x203389(%rip)        # 605528 <is_checker>
  40219f:	74 14                	je     4021b5 <launch+0x8d>
  4021a1:	bf 49 35 40 00       	mov    $0x403549,%edi
  4021a6:	e8 35 eb ff ff       	callq  400ce0 <puts@plt>
  4021ab:	b8 00 00 00 00       	mov    $0x0,%eax
  4021b0:	e8 d2 fa ff ff       	callq  401c87 <check_fail>
  4021b5:	bf 54 35 40 00       	mov    $0x403554,%edi
  4021ba:	e8 21 eb ff ff       	callq  400ce0 <puts@plt>
  4021bf:	48 8b 45 f8          	mov    -0x8(%rbp),%rax
  4021c3:	64 48 33 04 25 28 00 	xor    %fs:0x28,%rax
  4021ca:	00 00 
  4021cc:	74 05                	je     4021d3 <launch+0xab>
  4021ce:	e8 2d eb ff ff       	callq  400d00 <__stack_chk_fail@plt>
  4021d3:	c9                   	leaveq 
  4021d4:	c3                   	retq   

00000000004021d5 <stable_launch>:
  4021d5:	53                   	push   %rbx
  4021d6:	48 89 3d 2b 33 20 00 	mov    %rdi,0x20332b(%rip)        # 605508 <global_offset>
  4021dd:	41 b9 00 00 00 00    	mov    $0x0,%r9d
  4021e3:	41 b8 00 00 00 00    	mov    $0x0,%r8d
  4021e9:	b9 32 01 00 00       	mov    $0x132,%ecx
  4021ee:	ba 07 00 00 00       	mov    $0x7,%edx
  4021f3:	be 00 00 10 00       	mov    $0x100000,%esi
  4021f8:	bf 00 60 58 55       	mov    $0x55586000,%edi
  4021fd:	e8 0e eb ff ff       	callq  400d10 <mmap@plt>
  402202:	48 89 c3             	mov    %rax,%rbx
  402205:	48 3d 00 60 58 55    	cmp    $0x55586000,%rax
  40220b:	74 37                	je     402244 <stable_launch+0x6f>
  40220d:	be 00 00 10 00       	mov    $0x100000,%esi
  402212:	48 89 c7             	mov    %rax,%rdi
  402215:	e8 f6 eb ff ff       	callq  400e10 <munmap@plt>
  40221a:	b9 00 60 58 55       	mov    $0x55586000,%ecx
  40221f:	ba 08 37 40 00       	mov    $0x403708,%edx
  402224:	be 01 00 00 00       	mov    $0x1,%esi
  402229:	48 8b 3d b8 32 20 00 	mov    0x2032b8(%rip),%rdi        # 6054e8 <stderr@@GLIBC_2.2.5>
  402230:	b8 00 00 00 00       	mov    $0x0,%eax
  402235:	e8 56 ec ff ff       	callq  400e90 <__fprintf_chk@plt>
  40223a:	bf 01 00 00 00       	mov    $0x1,%edi
  40223f:	e8 2c ec ff ff       	callq  400e70 <exit@plt>
  402244:	48 8d 90 f8 ff 0f 00 	lea    0xffff8(%rax),%rdx
  40224b:	48 89 15 fe 3e 20 00 	mov    %rdx,0x203efe(%rip)        # 606150 <stack_top>
  402252:	48 89 e0             	mov    %rsp,%rax
  402255:	48 89 d4             	mov    %rdx,%rsp
  402258:	48 89 c2             	mov    %rax,%rdx
  40225b:	48 89 15 9e 32 20 00 	mov    %rdx,0x20329e(%rip)        # 605500 <global_save_stack>
  402262:	48 8b 3d 9f 32 20 00 	mov    0x20329f(%rip),%rdi        # 605508 <global_offset>
  402269:	e8 ba fe ff ff       	callq  402128 <launch>
  40226e:	48 8b 05 8b 32 20 00 	mov    0x20328b(%rip),%rax        # 605500 <global_save_stack>
  402275:	48 89 c4             	mov    %rax,%rsp
  402278:	be 00 00 10 00       	mov    $0x100000,%esi
  40227d:	48 89 df             	mov    %rbx,%rdi
  402280:	e8 8b eb ff ff       	callq  400e10 <munmap@plt>
  402285:	5b                   	pop    %rbx
  402286:	c3                   	retq   

0000000000402287 <rio_readinitb>:
  402287:	89 37                	mov    %esi,(%rdi)
  402289:	c7 47 04 00 00 00 00 	movl   $0x0,0x4(%rdi)
  402290:	48 8d 47 10          	lea    0x10(%rdi),%rax
  402294:	48 89 47 08          	mov    %rax,0x8(%rdi)
  402298:	c3                   	retq   

0000000000402299 <sigalrm_handler>:
  402299:	48 83 ec 08          	sub    $0x8,%rsp
  40229d:	b9 00 00 00 00       	mov    $0x0,%ecx
  4022a2:	ba 40 37 40 00       	mov    $0x403740,%edx
  4022a7:	be 01 00 00 00       	mov    $0x1,%esi
  4022ac:	48 8b 3d 35 32 20 00 	mov    0x203235(%rip),%rdi        # 6054e8 <stderr@@GLIBC_2.2.5>
  4022b3:	b8 00 00 00 00       	mov    $0x0,%eax
  4022b8:	e8 d3 eb ff ff       	callq  400e90 <__fprintf_chk@plt>
  4022bd:	bf 01 00 00 00       	mov    $0x1,%edi
  4022c2:	e8 a9 eb ff ff       	callq  400e70 <exit@plt>

00000000004022c7 <rio_writen>:
  4022c7:	41 55                	push   %r13
  4022c9:	41 54                	push   %r12
  4022cb:	55                   	push   %rbp
  4022cc:	53                   	push   %rbx
  4022cd:	48 83 ec 08          	sub    $0x8,%rsp
  4022d1:	41 89 fc             	mov    %edi,%r12d
  4022d4:	48 89 f5             	mov    %rsi,%rbp
  4022d7:	49 89 d5             	mov    %rdx,%r13
  4022da:	48 89 d3             	mov    %rdx,%rbx
  4022dd:	eb 28                	jmp    402307 <rio_writen+0x40>
  4022df:	48 89 da             	mov    %rbx,%rdx
  4022e2:	48 89 ee             	mov    %rbp,%rsi
  4022e5:	44 89 e7             	mov    %r12d,%edi
  4022e8:	e8 03 ea ff ff       	callq  400cf0 <write@plt>
  4022ed:	48 85 c0             	test   %rax,%rax
  4022f0:	7f 0f                	jg     402301 <rio_writen+0x3a>
  4022f2:	e8 a9 e9 ff ff       	callq  400ca0 <__errno_location@plt>
  4022f7:	83 38 04             	cmpl   $0x4,(%rax)
  4022fa:	75 15                	jne    402311 <rio_writen+0x4a>
  4022fc:	b8 00 00 00 00       	mov    $0x0,%eax
  402301:	48 29 c3             	sub    %rax,%rbx
  402304:	48 01 c5             	add    %rax,%rbp
  402307:	48 85 db             	test   %rbx,%rbx
  40230a:	75 d3                	jne    4022df <rio_writen+0x18>
  40230c:	4c 89 e8             	mov    %r13,%rax
  40230f:	eb 07                	jmp    402318 <rio_writen+0x51>
  402311:	48 c7 c0 ff ff ff ff 	mov    $0xffffffffffffffff,%rax
  402318:	48 83 c4 08          	add    $0x8,%rsp
  40231c:	5b                   	pop    %rbx
  40231d:	5d                   	pop    %rbp
  40231e:	41 5c                	pop    %r12
  402320:	41 5d                	pop    %r13
  402322:	c3                   	retq   

0000000000402323 <rio_read>:
  402323:	41 55                	push   %r13
  402325:	41 54                	push   %r12
  402327:	55                   	push   %rbp
  402328:	53                   	push   %rbx
  402329:	48 83 ec 08          	sub    $0x8,%rsp
  40232d:	48 89 fb             	mov    %rdi,%rbx
  402330:	49 89 f5             	mov    %rsi,%r13
  402333:	49 89 d4             	mov    %rdx,%r12
  402336:	eb 2e                	jmp    402366 <rio_read+0x43>
  402338:	48 8d 6b 10          	lea    0x10(%rbx),%rbp
  40233c:	8b 3b                	mov    (%rbx),%edi
  40233e:	ba 00 20 00 00       	mov    $0x2000,%edx
  402343:	48 89 ee             	mov    %rbp,%rsi
  402346:	e8 05 ea ff ff       	callq  400d50 <read@plt>
  40234b:	89 43 04             	mov    %eax,0x4(%rbx)
  40234e:	85 c0                	test   %eax,%eax
  402350:	79 0c                	jns    40235e <rio_read+0x3b>
  402352:	e8 49 e9 ff ff       	callq  400ca0 <__errno_location@plt>
  402357:	83 38 04             	cmpl   $0x4,(%rax)
  40235a:	74 0a                	je     402366 <rio_read+0x43>
  40235c:	eb 37                	jmp    402395 <rio_read+0x72>
  40235e:	85 c0                	test   %eax,%eax
  402360:	74 3c                	je     40239e <rio_read+0x7b>
  402362:	48 89 6b 08          	mov    %rbp,0x8(%rbx)
  402366:	8b 6b 04             	mov    0x4(%rbx),%ebp
  402369:	85 ed                	test   %ebp,%ebp
  40236b:	7e cb                	jle    402338 <rio_read+0x15>
  40236d:	89 e8                	mov    %ebp,%eax
  40236f:	49 39 c4             	cmp    %rax,%r12
  402372:	77 03                	ja     402377 <rio_read+0x54>
  402374:	44 89 e5             	mov    %r12d,%ebp
  402377:	4c 63 e5             	movslq %ebp,%r12
  40237a:	48 8b 73 08          	mov    0x8(%rbx),%rsi
  40237e:	4c 89 e2             	mov    %r12,%rdx
  402381:	4c 89 ef             	mov    %r13,%rdi
  402384:	e8 37 ea ff ff       	callq  400dc0 <memcpy@plt>
  402389:	4c 01 63 08          	add    %r12,0x8(%rbx)
  40238d:	29 6b 04             	sub    %ebp,0x4(%rbx)
  402390:	4c 89 e0             	mov    %r12,%rax
  402393:	eb 0e                	jmp    4023a3 <rio_read+0x80>
  402395:	48 c7 c0 ff ff ff ff 	mov    $0xffffffffffffffff,%rax
  40239c:	eb 05                	jmp    4023a3 <rio_read+0x80>
  40239e:	b8 00 00 00 00       	mov    $0x0,%eax
  4023a3:	48 83 c4 08          	add    $0x8,%rsp
  4023a7:	5b                   	pop    %rbx
  4023a8:	5d                   	pop    %rbp
  4023a9:	41 5c                	pop    %r12
  4023ab:	41 5d                	pop    %r13
  4023ad:	c3                   	retq   

00000000004023ae <rio_readlineb>:
  4023ae:	41 55                	push   %r13
  4023b0:	41 54                	push   %r12
  4023b2:	55                   	push   %rbp
  4023b3:	53                   	push   %rbx
  4023b4:	48 83 ec 18          	sub    $0x18,%rsp
  4023b8:	49 89 fd             	mov    %rdi,%r13
  4023bb:	48 89 f5             	mov    %rsi,%rbp
  4023be:	49 89 d4             	mov    %rdx,%r12
  4023c1:	bb 01 00 00 00       	mov    $0x1,%ebx
  4023c6:	eb 3f                	jmp    402407 <rio_readlineb+0x59>
  4023c8:	ba 01 00 00 00       	mov    $0x1,%edx
  4023cd:	48 8d 74 24 0f       	lea    0xf(%rsp),%rsi
  4023d2:	4c 89 ef             	mov    %r13,%rdi
  4023d5:	e8 49 ff ff ff       	callq  402323 <rio_read>
  4023da:	83 f8 01             	cmp    $0x1,%eax
  4023dd:	75 15                	jne    4023f4 <rio_readlineb+0x46>
  4023df:	48 8d 45 01          	lea    0x1(%rbp),%rax
  4023e3:	0f b6 54 24 0f       	movzbl 0xf(%rsp),%edx
  4023e8:	88 55 00             	mov    %dl,0x0(%rbp)
  4023eb:	80 7c 24 0f 0a       	cmpb   $0xa,0xf(%rsp)
  4023f0:	75 0e                	jne    402400 <rio_readlineb+0x52>
  4023f2:	eb 1a                	jmp    40240e <rio_readlineb+0x60>
  4023f4:	85 c0                	test   %eax,%eax
  4023f6:	75 22                	jne    40241a <rio_readlineb+0x6c>
  4023f8:	48 83 fb 01          	cmp    $0x1,%rbx
  4023fc:	75 13                	jne    402411 <rio_readlineb+0x63>
  4023fe:	eb 23                	jmp    402423 <rio_readlineb+0x75>
  402400:	48 83 c3 01          	add    $0x1,%rbx
  402404:	48 89 c5             	mov    %rax,%rbp
  402407:	4c 39 e3             	cmp    %r12,%rbx
  40240a:	72 bc                	jb     4023c8 <rio_readlineb+0x1a>
  40240c:	eb 03                	jmp    402411 <rio_readlineb+0x63>
  40240e:	48 89 c5             	mov    %rax,%rbp
  402411:	c6 45 00 00          	movb   $0x0,0x0(%rbp)
  402415:	48 89 d8             	mov    %rbx,%rax
  402418:	eb 0e                	jmp    402428 <rio_readlineb+0x7a>
  40241a:	48 c7 c0 ff ff ff ff 	mov    $0xffffffffffffffff,%rax
  402421:	eb 05                	jmp    402428 <rio_readlineb+0x7a>
  402423:	b8 00 00 00 00       	mov    $0x0,%eax
  402428:	48 83 c4 18          	add    $0x18,%rsp
  40242c:	5b                   	pop    %rbx
  40242d:	5d                   	pop    %rbp
  40242e:	41 5c                	pop    %r12
  402430:	41 5d                	pop    %r13
  402432:	c3                   	retq   

0000000000402433 <urlencode>:
  402433:	41 54                	push   %r12
  402435:	55                   	push   %rbp
  402436:	53                   	push   %rbx
  402437:	48 83 ec 10          	sub    $0x10,%rsp
  40243b:	48 89 fb             	mov    %rdi,%rbx
  40243e:	48 89 f5             	mov    %rsi,%rbp
  402441:	64 48 8b 04 25 28 00 	mov    %fs:0x28,%rax
  402448:	00 00 
  40244a:	48 89 44 24 08       	mov    %rax,0x8(%rsp)
  40244f:	31 c0                	xor    %eax,%eax
  402451:	48 c7 c1 ff ff ff ff 	mov    $0xffffffffffffffff,%rcx
  402458:	f2 ae                	repnz scas %es:(%rdi),%al
  40245a:	48 f7 d1             	not    %rcx
  40245d:	8d 41 ff             	lea    -0x1(%rcx),%eax
  402460:	e9 aa 00 00 00       	jmpq   40250f <urlencode+0xdc>
  402465:	44 0f b6 03          	movzbl (%rbx),%r8d
  402469:	41 80 f8 2a          	cmp    $0x2a,%r8b
  40246d:	0f 94 c2             	sete   %dl
  402470:	41 80 f8 2d          	cmp    $0x2d,%r8b
  402474:	0f 94 c0             	sete   %al
  402477:	08 c2                	or     %al,%dl
  402479:	75 24                	jne    40249f <urlencode+0x6c>
  40247b:	41 80 f8 2e          	cmp    $0x2e,%r8b
  40247f:	74 1e                	je     40249f <urlencode+0x6c>
  402481:	41 80 f8 5f          	cmp    $0x5f,%r8b
  402485:	74 18                	je     40249f <urlencode+0x6c>
  402487:	41 8d 40 d0          	lea    -0x30(%r8),%eax
  40248b:	3c 09                	cmp    $0x9,%al
  40248d:	76 10                	jbe    40249f <urlencode+0x6c>
  40248f:	41 8d 40 bf          	lea    -0x41(%r8),%eax
  402493:	3c 19                	cmp    $0x19,%al
  402495:	76 08                	jbe    40249f <urlencode+0x6c>
  402497:	41 8d 40 9f          	lea    -0x61(%r8),%eax
  40249b:	3c 19                	cmp    $0x19,%al
  40249d:	77 0a                	ja     4024a9 <urlencode+0x76>
  40249f:	44 88 45 00          	mov    %r8b,0x0(%rbp)
  4024a3:	48 8d 6d 01          	lea    0x1(%rbp),%rbp
  4024a7:	eb 5f                	jmp    402508 <urlencode+0xd5>
  4024a9:	41 80 f8 20          	cmp    $0x20,%r8b
  4024ad:	75 0a                	jne    4024b9 <urlencode+0x86>
  4024af:	c6 45 00 2b          	movb   $0x2b,0x0(%rbp)
  4024b3:	48 8d 6d 01          	lea    0x1(%rbp),%rbp
  4024b7:	eb 4f                	jmp    402508 <urlencode+0xd5>
  4024b9:	41 8d 40 e0          	lea    -0x20(%r8),%eax
  4024bd:	3c 5f                	cmp    $0x5f,%al
  4024bf:	0f 96 c2             	setbe  %dl
  4024c2:	41 80 f8 09          	cmp    $0x9,%r8b
  4024c6:	0f 94 c0             	sete   %al
  4024c9:	08 c2                	or     %al,%dl
  4024cb:	74 50                	je     40251d <urlencode+0xea>
  4024cd:	45 0f b6 c0          	movzbl %r8b,%r8d
  4024d1:	b9 d8 37 40 00       	mov    $0x4037d8,%ecx
  4024d6:	ba 08 00 00 00       	mov    $0x8,%edx
  4024db:	be 01 00 00 00       	mov    $0x1,%esi
  4024e0:	48 89 e7             	mov    %rsp,%rdi
  4024e3:	b8 00 00 00 00       	mov    $0x0,%eax
  4024e8:	e8 b3 e9 ff ff       	callq  400ea0 <__sprintf_chk@plt>
  4024ed:	0f b6 04 24          	movzbl (%rsp),%eax
  4024f1:	88 45 00             	mov    %al,0x0(%rbp)
  4024f4:	0f b6 44 24 01       	movzbl 0x1(%rsp),%eax
  4024f9:	88 45 01             	mov    %al,0x1(%rbp)
  4024fc:	0f b6 44 24 02       	movzbl 0x2(%rsp),%eax
  402501:	88 45 02             	mov    %al,0x2(%rbp)
  402504:	48 8d 6d 03          	lea    0x3(%rbp),%rbp
  402508:	48 83 c3 01          	add    $0x1,%rbx
  40250c:	44 89 e0             	mov    %r12d,%eax
  40250f:	44 8d 60 ff          	lea    -0x1(%rax),%r12d
  402513:	85 c0                	test   %eax,%eax
  402515:	0f 85 4a ff ff ff    	jne    402465 <urlencode+0x32>
  40251b:	eb 05                	jmp    402522 <urlencode+0xef>
  40251d:	b8 ff ff ff ff       	mov    $0xffffffff,%eax
  402522:	48 8b 74 24 08       	mov    0x8(%rsp),%rsi
  402527:	64 48 33 34 25 28 00 	xor    %fs:0x28,%rsi
  40252e:	00 00 
  402530:	74 05                	je     402537 <urlencode+0x104>
  402532:	e8 c9 e7 ff ff       	callq  400d00 <__stack_chk_fail@plt>
  402537:	48 83 c4 10          	add    $0x10,%rsp
  40253b:	5b                   	pop    %rbx
  40253c:	5d                   	pop    %rbp
  40253d:	41 5c                	pop    %r12
  40253f:	c3                   	retq   

0000000000402540 <submitr>:
  402540:	41 57                	push   %r15
  402542:	41 56                	push   %r14
  402544:	41 55                	push   %r13
  402546:	41 54                	push   %r12
  402548:	55                   	push   %rbp
  402549:	53                   	push   %rbx
  40254a:	48 81 ec 58 a0 00 00 	sub    $0xa058,%rsp
  402551:	49 89 fc             	mov    %rdi,%r12
  402554:	89 74 24 04          	mov    %esi,0x4(%rsp)
  402558:	49 89 d7             	mov    %rdx,%r15
  40255b:	49 89 ce             	mov    %rcx,%r14
  40255e:	4c 89 44 24 08       	mov    %r8,0x8(%rsp)
  402563:	4d 89 cd             	mov    %r9,%r13
  402566:	48 8b 9c 24 90 a0 00 	mov    0xa090(%rsp),%rbx
  40256d:	00 
  40256e:	64 48 8b 04 25 28 00 	mov    %fs:0x28,%rax
  402575:	00 00 
  402577:	48 89 84 24 48 a0 00 	mov    %rax,0xa048(%rsp)
  40257e:	00 
  40257f:	31 c0                	xor    %eax,%eax
  402581:	c7 44 24 1c 00 00 00 	movl   $0x0,0x1c(%rsp)
  402588:	00 
  402589:	ba 00 00 00 00       	mov    $0x0,%edx
  40258e:	be 01 00 00 00       	mov    $0x1,%esi
  402593:	bf 02 00 00 00       	mov    $0x2,%edi
  402598:	e8 13 e9 ff ff       	callq  400eb0 <socket@plt>
  40259d:	85 c0                	test   %eax,%eax
  40259f:	79 4e                	jns    4025ef <submitr+0xaf>
  4025a1:	48 b8 45 72 72 6f 72 	movabs $0x43203a726f727245,%rax
  4025a8:	3a 20 43 
  4025ab:	48 89 03             	mov    %rax,(%rbx)
  4025ae:	48 b8 6c 69 65 6e 74 	movabs $0x6e7520746e65696c,%rax
  4025b5:	20 75 6e 
  4025b8:	48 89 43 08          	mov    %rax,0x8(%rbx)
  4025bc:	48 b8 61 62 6c 65 20 	movabs $0x206f7420656c6261,%rax
  4025c3:	74 6f 20 
  4025c6:	48 89 43 10          	mov    %rax,0x10(%rbx)
  4025ca:	48 b8 63 72 65 61 74 	movabs $0x7320657461657263,%rax
  4025d1:	65 20 73 
  4025d4:	48 89 43 18          	mov    %rax,0x18(%rbx)
  4025d8:	c7 43 20 6f 63 6b 65 	movl   $0x656b636f,0x20(%rbx)
  4025df:	66 c7 43 24 74 00    	movw   $0x74,0x24(%rbx)
  4025e5:	b8 ff ff ff ff       	mov    $0xffffffff,%eax
  4025ea:	e9 88 06 00 00       	jmpq   402c77 <submitr+0x737>
  4025ef:	89 c5                	mov    %eax,%ebp
  4025f1:	4c 89 e7             	mov    %r12,%rdi
  4025f4:	e8 87 e7 ff ff       	callq  400d80 <gethostbyname@plt>
  4025f9:	48 85 c0             	test   %rax,%rax
  4025fc:	75 67                	jne    402665 <submitr+0x125>
  4025fe:	48 b8 45 72 72 6f 72 	movabs $0x44203a726f727245,%rax
  402605:	3a 20 44 
  402608:	48 89 03             	mov    %rax,(%rbx)
  40260b:	48 b8 4e 53 20 69 73 	movabs $0x6e7520736920534e,%rax
  402612:	20 75 6e 
  402615:	48 89 43 08          	mov    %rax,0x8(%rbx)
  402619:	48 b8 61 62 6c 65 20 	movabs $0x206f7420656c6261,%rax
  402620:	74 6f 20 
  402623:	48 89 43 10          	mov    %rax,0x10(%rbx)
  402627:	48 b8 72 65 73 6f 6c 	movabs $0x2065766c6f736572,%rax
  40262e:	76 65 20 
  402631:	48 89 43 18          	mov    %rax,0x18(%rbx)
  402635:	48 b8 73 65 72 76 65 	movabs $0x6120726576726573,%rax
  40263c:	72 20 61 
  40263f:	48 89 43 20          	mov    %rax,0x20(%rbx)
  402643:	c7 43 28 64 64 72 65 	movl   $0x65726464,0x28(%rbx)
  40264a:	66 c7 43 2c 73 73    	movw   $0x7373,0x2c(%rbx)
  402650:	c6 43 2e 00          	movb   $0x0,0x2e(%rbx)
  402654:	89 ef                	mov    %ebp,%edi
  402656:	e8 e5 e6 ff ff       	callq  400d40 <close@plt>
  40265b:	b8 ff ff ff ff       	mov    $0xffffffff,%eax
  402660:	e9 12 06 00 00       	jmpq   402c77 <submitr+0x737>
  402665:	48 c7 44 24 20 00 00 	movq   $0x0,0x20(%rsp)
  40266c:	00 00 
  40266e:	48 c7 44 24 28 00 00 	movq   $0x0,0x28(%rsp)
  402675:	00 00 
  402677:	66 c7 44 24 20 02 00 	movw   $0x2,0x20(%rsp)
  40267e:	48 63 50 14          	movslq 0x14(%rax),%rdx
  402682:	48 8b 40 18          	mov    0x18(%rax),%rax
  402686:	48 8b 30             	mov    (%rax),%rsi
  402689:	48 8d 7c 24 24       	lea    0x24(%rsp),%rdi
  40268e:	b9 0c 00 00 00       	mov    $0xc,%ecx
  402693:	e8 f8 e6 ff ff       	callq  400d90 <__memmove_chk@plt>
  402698:	0f b7 44 24 04       	movzwl 0x4(%rsp),%eax
  40269d:	66 c1 c8 08          	ror    $0x8,%ax
  4026a1:	66 89 44 24 22       	mov    %ax,0x22(%rsp)
  4026a6:	ba 10 00 00 00       	mov    $0x10,%edx
  4026ab:	48 8d 74 24 20       	lea    0x20(%rsp),%rsi
  4026b0:	89 ef                	mov    %ebp,%edi
  4026b2:	e8 c9 e7 ff ff       	callq  400e80 <connect@plt>
  4026b7:	85 c0                	test   %eax,%eax
  4026b9:	79 59                	jns    402714 <submitr+0x1d4>
  4026bb:	48 b8 45 72 72 6f 72 	movabs $0x55203a726f727245,%rax
  4026c2:	3a 20 55 
  4026c5:	48 89 03             	mov    %rax,(%rbx)
  4026c8:	48 b8 6e 61 62 6c 65 	movabs $0x6f7420656c62616e,%rax
  4026cf:	20 74 6f 
  4026d2:	48 89 43 08          	mov    %rax,0x8(%rbx)
  4026d6:	48 b8 20 63 6f 6e 6e 	movabs $0x7463656e6e6f6320,%rax
  4026dd:	65 63 74 
  4026e0:	48 89 43 10          	mov    %rax,0x10(%rbx)
  4026e4:	48 b8 20 74 6f 20 74 	movabs $0x20656874206f7420,%rax
  4026eb:	68 65 20 
  4026ee:	48 89 43 18          	mov    %rax,0x18(%rbx)
  4026f2:	c7 43 20 73 65 72 76 	movl   $0x76726573,0x20(%rbx)
  4026f9:	66 c7 43 24 65 72    	movw   $0x7265,0x24(%rbx)
  4026ff:	c6 43 26 00          	movb   $0x0,0x26(%rbx)
  402703:	89 ef                	mov    %ebp,%edi
  402705:	e8 36 e6 ff ff       	callq  400d40 <close@plt>
  40270a:	b8 ff ff ff ff       	mov    $0xffffffff,%eax
  40270f:	e9 63 05 00 00       	jmpq   402c77 <submitr+0x737>
  402714:	48 c7 c6 ff ff ff ff 	mov    $0xffffffffffffffff,%rsi
  40271b:	b8 00 00 00 00       	mov    $0x0,%eax
  402720:	48 89 f1             	mov    %rsi,%rcx
  402723:	4c 89 ef             	mov    %r13,%rdi
  402726:	f2 ae                	repnz scas %es:(%rdi),%al
  402728:	48 f7 d1             	not    %rcx
  40272b:	48 89 ca             	mov    %rcx,%rdx
  40272e:	48 89 f1             	mov    %rsi,%rcx
  402731:	4c 89 ff             	mov    %r15,%rdi
  402734:	f2 ae                	repnz scas %es:(%rdi),%al
  402736:	48 f7 d1             	not    %rcx
  402739:	49 89 c8             	mov    %rcx,%r8
  40273c:	48 89 f1             	mov    %rsi,%rcx
  40273f:	4c 89 f7             	mov    %r14,%rdi
  402742:	f2 ae                	repnz scas %es:(%rdi),%al
  402744:	48 f7 d1             	not    %rcx
  402747:	4d 8d 44 08 fe       	lea    -0x2(%r8,%rcx,1),%r8
  40274c:	48 89 f1             	mov    %rsi,%rcx
  40274f:	48 8b 7c 24 08       	mov    0x8(%rsp),%rdi
  402754:	f2 ae                	repnz scas %es:(%rdi),%al
  402756:	48 89 c8             	mov    %rcx,%rax
  402759:	48 f7 d0             	not    %rax
  40275c:	49 8d 4c 00 ff       	lea    -0x1(%r8,%rax,1),%rcx
  402761:	48 8d 44 52 fd       	lea    -0x3(%rdx,%rdx,2),%rax
  402766:	48 8d 84 01 80 00 00 	lea    0x80(%rcx,%rax,1),%rax
  40276d:	00 
  40276e:	48 3d 00 20 00 00    	cmp    $0x2000,%rax
  402774:	76 72                	jbe    4027e8 <submitr+0x2a8>
  402776:	48 b8 45 72 72 6f 72 	movabs $0x52203a726f727245,%rax
  40277d:	3a 20 52 
  402780:	48 89 03             	mov    %rax,(%rbx)
  402783:	48 b8 65 73 75 6c 74 	movabs $0x747320746c757365,%rax
  40278a:	20 73 74 
  40278d:	48 89 43 08          	mov    %rax,0x8(%rbx)
  402791:	48 b8 72 69 6e 67 20 	movabs $0x6f6f7420676e6972,%rax
  402798:	74 6f 6f 
  40279b:	48 89 43 10          	mov    %rax,0x10(%rbx)
  40279f:	48 b8 20 6c 61 72 67 	movabs $0x202e656772616c20,%rax
  4027a6:	65 2e 20 
  4027a9:	48 89 43 18          	mov    %rax,0x18(%rbx)
  4027ad:	48 b8 49 6e 63 72 65 	movabs $0x6573616572636e49,%rax
  4027b4:	61 73 65 
  4027b7:	48 89 43 20          	mov    %rax,0x20(%rbx)
  4027bb:	48 b8 20 53 55 42 4d 	movabs $0x5254494d42555320,%rax
  4027c2:	49 54 52 
  4027c5:	48 89 43 28          	mov    %rax,0x28(%rbx)
  4027c9:	48 b8 5f 4d 41 58 42 	movabs $0x46554258414d5f,%rax
  4027d0:	55 46 00 
  4027d3:	48 89 43 30          	mov    %rax,0x30(%rbx)
  4027d7:	89 ef                	mov    %ebp,%edi
  4027d9:	e8 62 e5 ff ff       	callq  400d40 <close@plt>
  4027de:	b8 ff ff ff ff       	mov    $0xffffffff,%eax
  4027e3:	e9 8f 04 00 00       	jmpq   402c77 <submitr+0x737>
  4027e8:	48 8d b4 24 30 20 00 	lea    0x2030(%rsp),%rsi
  4027ef:	00 
  4027f0:	b9 00 04 00 00       	mov    $0x400,%ecx
  4027f5:	b8 00 00 00 00       	mov    $0x0,%eax
  4027fa:	48 89 f7             	mov    %rsi,%rdi
  4027fd:	f3 48 ab             	rep stos %rax,%es:(%rdi)
  402800:	4c 89 ef             	mov    %r13,%rdi
  402803:	e8 2b fc ff ff       	callq  402433 <urlencode>
  402808:	85 c0                	test   %eax,%eax
  40280a:	0f 89 8a 00 00 00    	jns    40289a <submitr+0x35a>
  402810:	48 b8 45 72 72 6f 72 	movabs $0x52203a726f727245,%rax
  402817:	3a 20 52 
  40281a:	48 89 03             	mov    %rax,(%rbx)
  40281d:	48 b8 65 73 75 6c 74 	movabs $0x747320746c757365,%rax
  402824:	20 73 74 
  402827:	48 89 43 08          	mov    %rax,0x8(%rbx)
  40282b:	48 b8 72 69 6e 67 20 	movabs $0x6e6f6320676e6972,%rax
  402832:	63 6f 6e 
  402835:	48 89 43 10          	mov    %rax,0x10(%rbx)
  402839:	48 b8 74 61 69 6e 73 	movabs $0x6e6120736e696174,%rax
  402840:	20 61 6e 
  402843:	48 89 43 18          	mov    %rax,0x18(%rbx)
  402847:	48 b8 20 69 6c 6c 65 	movabs $0x6c6167656c6c6920,%rax
  40284e:	67 61 6c 
  402851:	48 89 43 20          	mov    %rax,0x20(%rbx)
  402855:	48 b8 20 6f 72 20 75 	movabs $0x72706e7520726f20,%rax
  40285c:	6e 70 72 
  40285f:	48 89 43 28          	mov    %rax,0x28(%rbx)
  402863:	48 b8 69 6e 74 61 62 	movabs $0x20656c6261746e69,%rax
  40286a:	6c 65 20 
  40286d:	48 89 43 30          	mov    %rax,0x30(%rbx)
  402871:	48 b8 63 68 61 72 61 	movabs $0x6574636172616863,%rax
  402878:	63 74 65 
  40287b:	48 89 43 38          	mov    %rax,0x38(%rbx)
  40287f:	66 c7 43 40 72 2e    	movw   $0x2e72,0x40(%rbx)
  402885:	c6 43 42 00          	movb   $0x0,0x42(%rbx)
  402889:	89 ef                	mov    %ebp,%edi
  40288b:	e8 b0 e4 ff ff       	callq  400d40 <close@plt>
  402890:	b8 ff ff ff ff       	mov    $0xffffffff,%eax
  402895:	e9 dd 03 00 00       	jmpq   402c77 <submitr+0x737>
  40289a:	4c 8d 6c 24 30       	lea    0x30(%rsp),%r13
  40289f:	41 54                	push   %r12
  4028a1:	48 8d 84 24 38 20 00 	lea    0x2038(%rsp),%rax
  4028a8:	00 
  4028a9:	50                   	push   %rax
  4028aa:	4d 89 f9             	mov    %r15,%r9
  4028ad:	4d 89 f0             	mov    %r14,%r8
  4028b0:	b9 68 37 40 00       	mov    $0x403768,%ecx
  4028b5:	ba 00 20 00 00       	mov    $0x2000,%edx
  4028ba:	be 01 00 00 00       	mov    $0x1,%esi
  4028bf:	4c 89 ef             	mov    %r13,%rdi
  4028c2:	b8 00 00 00 00       	mov    $0x0,%eax
  4028c7:	e8 d4 e5 ff ff       	callq  400ea0 <__sprintf_chk@plt>
  4028cc:	b8 00 00 00 00       	mov    $0x0,%eax
  4028d1:	48 c7 c1 ff ff ff ff 	mov    $0xffffffffffffffff,%rcx
  4028d8:	4c 89 ef             	mov    %r13,%rdi
  4028db:	f2 ae                	repnz scas %es:(%rdi),%al
  4028dd:	48 f7 d1             	not    %rcx
  4028e0:	48 8d 51 ff          	lea    -0x1(%rcx),%rdx
  4028e4:	4c 89 ee             	mov    %r13,%rsi
  4028e7:	89 ef                	mov    %ebp,%edi
  4028e9:	e8 d9 f9 ff ff       	callq  4022c7 <rio_writen>
  4028ee:	48 83 c4 10          	add    $0x10,%rsp
  4028f2:	48 85 c0             	test   %rax,%rax
  4028f5:	79 6e                	jns    402965 <submitr+0x425>
  4028f7:	48 b8 45 72 72 6f 72 	movabs $0x43203a726f727245,%rax
  4028fe:	3a 20 43 
  402901:	48 89 03             	mov    %rax,(%rbx)
  402904:	48 b8 6c 69 65 6e 74 	movabs $0x6e7520746e65696c,%rax
  40290b:	20 75 6e 
  40290e:	48 89 43 08          	mov    %rax,0x8(%rbx)
  402912:	48 b8 61 62 6c 65 20 	movabs $0x206f7420656c6261,%rax
  402919:	74 6f 20 
  40291c:	48 89 43 10          	mov    %rax,0x10(%rbx)
  402920:	48 b8 77 72 69 74 65 	movabs $0x6f74206574697277,%rax
  402927:	20 74 6f 
  40292a:	48 89 43 18          	mov    %rax,0x18(%rbx)
  40292e:	48 b8 20 74 68 65 20 	movabs $0x7365722065687420,%rax
  402935:	72 65 73 
  402938:	48 89 43 20          	mov    %rax,0x20(%rbx)
  40293c:	48 b8 75 6c 74 20 73 	movabs $0x7672657320746c75,%rax
  402943:	65 72 76 
  402946:	48 89 43 28          	mov    %rax,0x28(%rbx)
  40294a:	66 c7 43 30 65 72    	movw   $0x7265,0x30(%rbx)
  402950:	c6 43 32 00          	movb   $0x0,0x32(%rbx)
  402954:	89 ef                	mov    %ebp,%edi
  402956:	e8 e5 e3 ff ff       	callq  400d40 <close@plt>
  40295b:	b8 ff ff ff ff       	mov    $0xffffffff,%eax
  402960:	e9 12 03 00 00       	jmpq   402c77 <submitr+0x737>
  402965:	89 ee                	mov    %ebp,%esi
  402967:	48 8d bc 24 30 80 00 	lea    0x8030(%rsp),%rdi
  40296e:	00 
  40296f:	e8 13 f9 ff ff       	callq  402287 <rio_readinitb>
  402974:	ba 00 20 00 00       	mov    $0x2000,%edx
  402979:	48 8d 74 24 30       	lea    0x30(%rsp),%rsi
  40297e:	48 8d bc 24 30 80 00 	lea    0x8030(%rsp),%rdi
  402985:	00 
  402986:	e8 23 fa ff ff       	callq  4023ae <rio_readlineb>
  40298b:	48 85 c0             	test   %rax,%rax
  40298e:	7f 7d                	jg     402a0d <submitr+0x4cd>
  402990:	48 b8 45 72 72 6f 72 	movabs $0x43203a726f727245,%rax
  402997:	3a 20 43 
  40299a:	48 89 03             	mov    %rax,(%rbx)
  40299d:	48 b8 6c 69 65 6e 74 	movabs $0x6e7520746e65696c,%rax
  4029a4:	20 75 6e 
  4029a7:	48 89 43 08          	mov    %rax,0x8(%rbx)
  4029ab:	48 b8 61 62 6c 65 20 	movabs $0x206f7420656c6261,%rax
  4029b2:	74 6f 20 
  4029b5:	48 89 43 10          	mov    %rax,0x10(%rbx)
  4029b9:	48 b8 72 65 61 64 20 	movabs $0x7269662064616572,%rax
  4029c0:	66 69 72 
  4029c3:	48 89 43 18          	mov    %rax,0x18(%rbx)
  4029c7:	48 b8 73 74 20 68 65 	movabs $0x6564616568207473,%rax
  4029ce:	61 64 65 
  4029d1:	48 89 43 20          	mov    %rax,0x20(%rbx)
  4029d5:	48 b8 72 20 66 72 6f 	movabs $0x72206d6f72662072,%rax
  4029dc:	6d 20 72 
  4029df:	48 89 43 28          	mov    %rax,0x28(%rbx)
  4029e3:	48 b8 65 73 75 6c 74 	movabs $0x657320746c757365,%rax
  4029ea:	20 73 65 
  4029ed:	48 89 43 30          	mov    %rax,0x30(%rbx)
  4029f1:	c7 43 38 72 76 65 72 	movl   $0x72657672,0x38(%rbx)
  4029f8:	c6 43 3c 00          	movb   $0x0,0x3c(%rbx)
  4029fc:	89 ef                	mov    %ebp,%edi
  4029fe:	e8 3d e3 ff ff       	callq  400d40 <close@plt>
  402a03:	b8 ff ff ff ff       	mov    $0xffffffff,%eax
  402a08:	e9 6a 02 00 00       	jmpq   402c77 <submitr+0x737>
  402a0d:	4c 8d 84 24 30 60 00 	lea    0x6030(%rsp),%r8
  402a14:	00 
  402a15:	48 8d 4c 24 1c       	lea    0x1c(%rsp),%rcx
  402a1a:	48 8d 94 24 30 40 00 	lea    0x4030(%rsp),%rdx
  402a21:	00 
  402a22:	be df 37 40 00       	mov    $0x4037df,%esi
  402a27:	48 8d 7c 24 30       	lea    0x30(%rsp),%rdi
  402a2c:	b8 00 00 00 00       	mov    $0x0,%eax
  402a31:	e8 ca e3 ff ff       	callq  400e00 <__isoc99_sscanf@plt>
  402a36:	e9 95 00 00 00       	jmpq   402ad0 <submitr+0x590>
  402a3b:	ba 00 20 00 00       	mov    $0x2000,%edx
  402a40:	48 8d 74 24 30       	lea    0x30(%rsp),%rsi
  402a45:	48 8d bc 24 30 80 00 	lea    0x8030(%rsp),%rdi
  402a4c:	00 
  402a4d:	e8 5c f9 ff ff       	callq  4023ae <rio_readlineb>
  402a52:	48 85 c0             	test   %rax,%rax
  402a55:	7f 79                	jg     402ad0 <submitr+0x590>
  402a57:	48 b8 45 72 72 6f 72 	movabs $0x43203a726f727245,%rax
  402a5e:	3a 20 43 
  402a61:	48 89 03             	mov    %rax,(%rbx)
  402a64:	48 b8 6c 69 65 6e 74 	movabs $0x6e7520746e65696c,%rax
  402a6b:	20 75 6e 
  402a6e:	48 89 43 08          	mov    %rax,0x8(%rbx)
  402a72:	48 b8 61 62 6c 65 20 	movabs $0x206f7420656c6261,%rax
  402a79:	74 6f 20 
  402a7c:	48 89 43 10          	mov    %rax,0x10(%rbx)
  402a80:	48 b8 72 65 61 64 20 	movabs $0x6165682064616572,%rax
  402a87:	68 65 61 
  402a8a:	48 89 43 18          	mov    %rax,0x18(%rbx)
  402a8e:	48 b8 64 65 72 73 20 	movabs $0x6f72662073726564,%rax
  402a95:	66 72 6f 
  402a98:	48 89 43 20          	mov    %rax,0x20(%rbx)
  402a9c:	48 b8 6d 20 74 68 65 	movabs $0x657220656874206d,%rax
  402aa3:	20 72 65 
  402aa6:	48 89 43 28          	mov    %rax,0x28(%rbx)
  402aaa:	48 b8 73 75 6c 74 20 	movabs $0x72657320746c7573,%rax
  402ab1:	73 65 72 
  402ab4:	48 89 43 30          	mov    %rax,0x30(%rbx)
  402ab8:	c7 43 38 76 65 72 00 	movl   $0x726576,0x38(%rbx)
  402abf:	89 ef                	mov    %ebp,%edi
  402ac1:	e8 7a e2 ff ff       	callq  400d40 <close@plt>
  402ac6:	b8 ff ff ff ff       	mov    $0xffffffff,%eax
  402acb:	e9 a7 01 00 00       	jmpq   402c77 <submitr+0x737>
  402ad0:	0f b6 54 24 30       	movzbl 0x30(%rsp),%edx
  402ad5:	b8 0d 00 00 00       	mov    $0xd,%eax
  402ada:	29 d0                	sub    %edx,%eax
  402adc:	75 15                	jne    402af3 <submitr+0x5b3>
  402ade:	0f b6 54 24 31       	movzbl 0x31(%rsp),%edx
  402ae3:	b8 0a 00 00 00       	mov    $0xa,%eax
  402ae8:	29 d0                	sub    %edx,%eax
  402aea:	75 07                	jne    402af3 <submitr+0x5b3>
  402aec:	0f b6 44 24 32       	movzbl 0x32(%rsp),%eax
  402af1:	f7 d8                	neg    %eax
  402af3:	85 c0                	test   %eax,%eax
  402af5:	0f 85 40 ff ff ff    	jne    402a3b <submitr+0x4fb>
  402afb:	ba 00 20 00 00       	mov    $0x2000,%edx
  402b00:	48 8d 74 24 30       	lea    0x30(%rsp),%rsi
  402b05:	48 8d bc 24 30 80 00 	lea    0x8030(%rsp),%rdi
  402b0c:	00 
  402b0d:	e8 9c f8 ff ff       	callq  4023ae <rio_readlineb>
  402b12:	48 85 c0             	test   %rax,%rax
  402b15:	0f 8f 83 00 00 00    	jg     402b9e <submitr+0x65e>
  402b1b:	48 b8 45 72 72 6f 72 	movabs $0x43203a726f727245,%rax
  402b22:	3a 20 43 
  402b25:	48 89 03             	mov    %rax,(%rbx)
  402b28:	48 b8 6c 69 65 6e 74 	movabs $0x6e7520746e65696c,%rax
  402b2f:	20 75 6e 
  402b32:	48 89 43 08          	mov    %rax,0x8(%rbx)
  402b36:	48 b8 61 62 6c 65 20 	movabs $0x206f7420656c6261,%rax
  402b3d:	74 6f 20 
  402b40:	48 89 43 10          	mov    %rax,0x10(%rbx)
  402b44:	48 b8 72 65 61 64 20 	movabs $0x6174732064616572,%rax
  402b4b:	73 74 61 
  402b4e:	48 89 43 18          	mov    %rax,0x18(%rbx)
  402b52:	48 b8 74 75 73 20 6d 	movabs $0x7373656d20737574,%rax
  402b59:	65 73 73 
  402b5c:	48 89 43 20          	mov    %rax,0x20(%rbx)
  402b60:	48 b8 61 67 65 20 66 	movabs $0x6d6f726620656761,%rax
  402b67:	72 6f 6d 
  402b6a:	48 89 43 28          	mov    %rax,0x28(%rbx)
  402b6e:	48 b8 20 72 65 73 75 	movabs $0x20746c7573657220,%rax
  402b75:	6c 74 20 
  402b78:	48 89 43 30          	mov    %rax,0x30(%rbx)
  402b7c:	c7 43 38 73 65 72 76 	movl   $0x76726573,0x38(%rbx)
  402b83:	66 c7 43 3c 65 72    	movw   $0x7265,0x3c(%rbx)
  402b89:	c6 43 3e 00          	movb   $0x0,0x3e(%rbx)
  402b8d:	89 ef                	mov    %ebp,%edi
  402b8f:	e8 ac e1 ff ff       	callq  400d40 <close@plt>
  402b94:	b8 ff ff ff ff       	mov    $0xffffffff,%eax
  402b99:	e9 d9 00 00 00       	jmpq   402c77 <submitr+0x737>
  402b9e:	44 8b 44 24 1c       	mov    0x1c(%rsp),%r8d
  402ba3:	41 81 f8 c8 00 00 00 	cmp    $0xc8,%r8d
  402baa:	74 37                	je     402be3 <submitr+0x6a3>
  402bac:	4c 8d 8c 24 30 60 00 	lea    0x6030(%rsp),%r9
  402bb3:	00 
  402bb4:	b9 a8 37 40 00       	mov    $0x4037a8,%ecx
  402bb9:	48 c7 c2 ff ff ff ff 	mov    $0xffffffffffffffff,%rdx
  402bc0:	be 01 00 00 00       	mov    $0x1,%esi
  402bc5:	48 89 df             	mov    %rbx,%rdi
  402bc8:	b8 00 00 00 00       	mov    $0x0,%eax
  402bcd:	e8 ce e2 ff ff       	callq  400ea0 <__sprintf_chk@plt>
  402bd2:	89 ef                	mov    %ebp,%edi
  402bd4:	e8 67 e1 ff ff       	callq  400d40 <close@plt>
  402bd9:	b8 ff ff ff ff       	mov    $0xffffffff,%eax
  402bde:	e9 94 00 00 00       	jmpq   402c77 <submitr+0x737>
  402be3:	48 8d 74 24 30       	lea    0x30(%rsp),%rsi
  402be8:	48 89 df             	mov    %rbx,%rdi
  402beb:	e8 e0 e0 ff ff       	callq  400cd0 <strcpy@plt>
  402bf0:	89 ef                	mov    %ebp,%edi
  402bf2:	e8 49 e1 ff ff       	callq  400d40 <close@plt>
  402bf7:	0f b6 03             	movzbl (%rbx),%eax
  402bfa:	ba 4f 00 00 00       	mov    $0x4f,%edx
  402bff:	29 c2                	sub    %eax,%edx
  402c01:	75 22                	jne    402c25 <submitr+0x6e5>
  402c03:	0f b6 4b 01          	movzbl 0x1(%rbx),%ecx
  402c07:	b8 4b 00 00 00       	mov    $0x4b,%eax
  402c0c:	29 c8                	sub    %ecx,%eax
  402c0e:	75 17                	jne    402c27 <submitr+0x6e7>
  402c10:	0f b6 4b 02          	movzbl 0x2(%rbx),%ecx
  402c14:	b8 0a 00 00 00       	mov    $0xa,%eax
  402c19:	29 c8                	sub    %ecx,%eax
  402c1b:	75 0a                	jne    402c27 <submitr+0x6e7>
  402c1d:	0f b6 43 03          	movzbl 0x3(%rbx),%eax
  402c21:	f7 d8                	neg    %eax
  402c23:	eb 02                	jmp    402c27 <submitr+0x6e7>
  402c25:	89 d0                	mov    %edx,%eax
  402c27:	85 c0                	test   %eax,%eax
  402c29:	74 40                	je     402c6b <submitr+0x72b>
  402c2b:	bf f0 37 40 00       	mov    $0x4037f0,%edi
  402c30:	b9 05 00 00 00       	mov    $0x5,%ecx
  402c35:	48 89 de             	mov    %rbx,%rsi
  402c38:	f3 a6                	repz cmpsb %es:(%rdi),%ds:(%rsi)
  402c3a:	0f 97 c0             	seta   %al
  402c3d:	0f 92 c1             	setb   %cl
  402c40:	29 c8                	sub    %ecx,%eax
  402c42:	0f be c0             	movsbl %al,%eax
  402c45:	85 c0                	test   %eax,%eax
  402c47:	74 2e                	je     402c77 <submitr+0x737>
  402c49:	85 d2                	test   %edx,%edx
  402c4b:	75 13                	jne    402c60 <submitr+0x720>
  402c4d:	0f b6 43 01          	movzbl 0x1(%rbx),%eax
  402c51:	ba 4b 00 00 00       	mov    $0x4b,%edx
  402c56:	29 c2                	sub    %eax,%edx
  402c58:	75 06                	jne    402c60 <submitr+0x720>
  402c5a:	0f b6 53 02          	movzbl 0x2(%rbx),%edx
  402c5e:	f7 da                	neg    %edx
  402c60:	85 d2                	test   %edx,%edx
  402c62:	75 0e                	jne    402c72 <submitr+0x732>
  402c64:	b8 00 00 00 00       	mov    $0x0,%eax
  402c69:	eb 0c                	jmp    402c77 <submitr+0x737>
  402c6b:	b8 00 00 00 00       	mov    $0x0,%eax
  402c70:	eb 05                	jmp    402c77 <submitr+0x737>
  402c72:	b8 ff ff ff ff       	mov    $0xffffffff,%eax
  402c77:	48 8b 9c 24 48 a0 00 	mov    0xa048(%rsp),%rbx
  402c7e:	00 
  402c7f:	64 48 33 1c 25 28 00 	xor    %fs:0x28,%rbx
  402c86:	00 00 
  402c88:	74 05                	je     402c8f <submitr+0x74f>
  402c8a:	e8 71 e0 ff ff       	callq  400d00 <__stack_chk_fail@plt>
  402c8f:	48 81 c4 58 a0 00 00 	add    $0xa058,%rsp
  402c96:	5b                   	pop    %rbx
  402c97:	5d                   	pop    %rbp
  402c98:	41 5c                	pop    %r12
  402c9a:	41 5d                	pop    %r13
  402c9c:	41 5e                	pop    %r14
  402c9e:	41 5f                	pop    %r15
  402ca0:	c3                   	retq   

0000000000402ca1 <init_timeout>:
  402ca1:	85 ff                	test   %edi,%edi
  402ca3:	74 23                	je     402cc8 <init_timeout+0x27>
  402ca5:	53                   	push   %rbx
  402ca6:	89 fb                	mov    %edi,%ebx
  402ca8:	85 ff                	test   %edi,%edi
  402caa:	79 05                	jns    402cb1 <init_timeout+0x10>
  402cac:	bb 00 00 00 00       	mov    $0x0,%ebx
  402cb1:	be 99 22 40 00       	mov    $0x402299,%esi
  402cb6:	bf 0e 00 00 00       	mov    $0xe,%edi
  402cbb:	e8 b0 e0 ff ff       	callq  400d70 <signal@plt>
  402cc0:	89 df                	mov    %ebx,%edi
  402cc2:	e8 69 e0 ff ff       	callq  400d30 <alarm@plt>
  402cc7:	5b                   	pop    %rbx
  402cc8:	f3 c3                	repz retq 

0000000000402cca <init_driver>:
  402cca:	55                   	push   %rbp
  402ccb:	53                   	push   %rbx
  402ccc:	48 83 ec 28          	sub    $0x28,%rsp
  402cd0:	48 89 fd             	mov    %rdi,%rbp
  402cd3:	64 48 8b 04 25 28 00 	mov    %fs:0x28,%rax
  402cda:	00 00 
  402cdc:	48 89 44 24 18       	mov    %rax,0x18(%rsp)
  402ce1:	31 c0                	xor    %eax,%eax
  402ce3:	be 01 00 00 00       	mov    $0x1,%esi
  402ce8:	bf 0d 00 00 00       	mov    $0xd,%edi
  402ced:	e8 7e e0 ff ff       	callq  400d70 <signal@plt>
  402cf2:	be 01 00 00 00       	mov    $0x1,%esi
  402cf7:	bf 1d 00 00 00       	mov    $0x1d,%edi
  402cfc:	e8 6f e0 ff ff       	callq  400d70 <signal@plt>
  402d01:	be 01 00 00 00       	mov    $0x1,%esi
  402d06:	bf 1d 00 00 00       	mov    $0x1d,%edi
  402d0b:	e8 60 e0 ff ff       	callq  400d70 <signal@plt>
  402d10:	ba 00 00 00 00       	mov    $0x0,%edx
  402d15:	be 01 00 00 00       	mov    $0x1,%esi
  402d1a:	bf 02 00 00 00       	mov    $0x2,%edi
  402d1f:	e8 8c e1 ff ff       	callq  400eb0 <socket@plt>
  402d24:	85 c0                	test   %eax,%eax
  402d26:	79 4f                	jns    402d77 <init_driver+0xad>
  402d28:	48 b8 45 72 72 6f 72 	movabs $0x43203a726f727245,%rax
  402d2f:	3a 20 43 
  402d32:	48 89 45 00          	mov    %rax,0x0(%rbp)
  402d36:	48 b8 6c 69 65 6e 74 	movabs $0x6e7520746e65696c,%rax
  402d3d:	20 75 6e 
  402d40:	48 89 45 08          	mov    %rax,0x8(%rbp)
  402d44:	48 b8 61 62 6c 65 20 	movabs $0x206f7420656c6261,%rax
  402d4b:	74 6f 20 
  402d4e:	48 89 45 10          	mov    %rax,0x10(%rbp)
  402d52:	48 b8 63 72 65 61 74 	movabs $0x7320657461657263,%rax
  402d59:	65 20 73 
  402d5c:	48 89 45 18          	mov    %rax,0x18(%rbp)
  402d60:	c7 45 20 6f 63 6b 65 	movl   $0x656b636f,0x20(%rbp)
  402d67:	66 c7 45 24 74 00    	movw   $0x74,0x24(%rbp)
  402d6d:	b8 ff ff ff ff       	mov    $0xffffffff,%eax
  402d72:	e9 2a 01 00 00       	jmpq   402ea1 <init_driver+0x1d7>
  402d77:	89 c3                	mov    %eax,%ebx
  402d79:	bf f5 37 40 00       	mov    $0x4037f5,%edi
  402d7e:	e8 fd df ff ff       	callq  400d80 <gethostbyname@plt>
  402d83:	48 85 c0             	test   %rax,%rax
  402d86:	75 68                	jne    402df0 <init_driver+0x126>
  402d88:	48 b8 45 72 72 6f 72 	movabs $0x44203a726f727245,%rax
  402d8f:	3a 20 44 
  402d92:	48 89 45 00          	mov    %rax,0x0(%rbp)
  402d96:	48 b8 4e 53 20 69 73 	movabs $0x6e7520736920534e,%rax
  402d9d:	20 75 6e 
  402da0:	48 89 45 08          	mov    %rax,0x8(%rbp)
  402da4:	48 b8 61 62 6c 65 20 	movabs $0x206f7420656c6261,%rax
  402dab:	74 6f 20 
  402dae:	48 89 45 10          	mov    %rax,0x10(%rbp)
  402db2:	48 b8 72 65 73 6f 6c 	movabs $0x2065766c6f736572,%rax
  402db9:	76 65 20 
  402dbc:	48 89 45 18          	mov    %rax,0x18(%rbp)
  402dc0:	48 b8 73 65 72 76 65 	movabs $0x6120726576726573,%rax
  402dc7:	72 20 61 
  402dca:	48 89 45 20          	mov    %rax,0x20(%rbp)
  402dce:	c7 45 28 64 64 72 65 	movl   $0x65726464,0x28(%rbp)
  402dd5:	66 c7 45 2c 73 73    	movw   $0x7373,0x2c(%rbp)
  402ddb:	c6 45 2e 00          	movb   $0x0,0x2e(%rbp)
  402ddf:	89 df                	mov    %ebx,%edi
  402de1:	e8 5a df ff ff       	callq  400d40 <close@plt>
  402de6:	b8 ff ff ff ff       	mov    $0xffffffff,%eax
  402deb:	e9 b1 00 00 00       	jmpq   402ea1 <init_driver+0x1d7>
  402df0:	48 c7 04 24 00 00 00 	movq   $0x0,(%rsp)
  402df7:	00 
  402df8:	48 c7 44 24 08 00 00 	movq   $0x0,0x8(%rsp)
  402dff:	00 00 
  402e01:	66 c7 04 24 02 00    	movw   $0x2,(%rsp)
  402e07:	48 63 50 14          	movslq 0x14(%rax),%rdx
  402e0b:	48 8b 40 18          	mov    0x18(%rax),%rax
  402e0f:	48 8b 30             	mov    (%rax),%rsi
  402e12:	48 8d 7c 24 04       	lea    0x4(%rsp),%rdi
  402e17:	b9 0c 00 00 00       	mov    $0xc,%ecx
  402e1c:	e8 6f df ff ff       	callq  400d90 <__memmove_chk@plt>
  402e21:	66 c7 44 24 02 3c 9a 	movw   $0x9a3c,0x2(%rsp)
  402e28:	ba 10 00 00 00       	mov    $0x10,%edx
  402e2d:	48 89 e6             	mov    %rsp,%rsi
  402e30:	89 df                	mov    %ebx,%edi
  402e32:	e8 49 e0 ff ff       	callq  400e80 <connect@plt>
  402e37:	85 c0                	test   %eax,%eax
  402e39:	79 50                	jns    402e8b <init_driver+0x1c1>
  402e3b:	48 b8 45 72 72 6f 72 	movabs $0x55203a726f727245,%rax
  402e42:	3a 20 55 
  402e45:	48 89 45 00          	mov    %rax,0x0(%rbp)
  402e49:	48 b8 6e 61 62 6c 65 	movabs $0x6f7420656c62616e,%rax
  402e50:	20 74 6f 
  402e53:	48 89 45 08          	mov    %rax,0x8(%rbp)
  402e57:	48 b8 20 63 6f 6e 6e 	movabs $0x7463656e6e6f6320,%rax
  402e5e:	65 63 74 
  402e61:	48 89 45 10          	mov    %rax,0x10(%rbp)
  402e65:	48 b8 20 74 6f 20 73 	movabs $0x76726573206f7420,%rax
  402e6c:	65 72 76 
  402e6f:	48 89 45 18          	mov    %rax,0x18(%rbp)
  402e73:	66 c7 45 20 65 72    	movw   $0x7265,0x20(%rbp)
  402e79:	c6 45 22 00          	movb   $0x0,0x22(%rbp)
  402e7d:	89 df                	mov    %ebx,%edi
  402e7f:	e8 bc de ff ff       	callq  400d40 <close@plt>
  402e84:	b8 ff ff ff ff       	mov    $0xffffffff,%eax
  402e89:	eb 16                	jmp    402ea1 <init_driver+0x1d7>
  402e8b:	89 df                	mov    %ebx,%edi
  402e8d:	e8 ae de ff ff       	callq  400d40 <close@plt>
  402e92:	66 c7 45 00 4f 4b    	movw   $0x4b4f,0x0(%rbp)
  402e98:	c6 45 02 00          	movb   $0x0,0x2(%rbp)
  402e9c:	b8 00 00 00 00       	mov    $0x0,%eax
  402ea1:	48 8b 4c 24 18       	mov    0x18(%rsp),%rcx
  402ea6:	64 48 33 0c 25 28 00 	xor    %fs:0x28,%rcx
  402ead:	00 00 
  402eaf:	74 05                	je     402eb6 <init_driver+0x1ec>
  402eb1:	e8 4a de ff ff       	callq  400d00 <__stack_chk_fail@plt>
  402eb6:	48 83 c4 28          	add    $0x28,%rsp
  402eba:	5b                   	pop    %rbx
  402ebb:	5d                   	pop    %rbp
  402ebc:	c3                   	retq   

0000000000402ebd <driver_post>:
  402ebd:	53                   	push   %rbx
  402ebe:	4c 89 cb             	mov    %r9,%rbx
  402ec1:	45 85 c0             	test   %r8d,%r8d
  402ec4:	74 27                	je     402eed <driver_post+0x30>
  402ec6:	48 89 ca             	mov    %rcx,%rdx
  402ec9:	be 05 38 40 00       	mov    $0x403805,%esi
  402ece:	bf 01 00 00 00       	mov    $0x1,%edi
  402ed3:	b8 00 00 00 00       	mov    $0x0,%eax
  402ed8:	e8 43 df ff ff       	callq  400e20 <__printf_chk@plt>
  402edd:	66 c7 03 4f 4b       	movw   $0x4b4f,(%rbx)
  402ee2:	c6 43 02 00          	movb   $0x0,0x2(%rbx)
  402ee6:	b8 00 00 00 00       	mov    $0x0,%eax
  402eeb:	eb 3f                	jmp    402f2c <driver_post+0x6f>
  402eed:	48 85 ff             	test   %rdi,%rdi
  402ef0:	74 2c                	je     402f1e <driver_post+0x61>
  402ef2:	80 3f 00             	cmpb   $0x0,(%rdi)
  402ef5:	74 27                	je     402f1e <driver_post+0x61>
  402ef7:	48 83 ec 08          	sub    $0x8,%rsp
  402efb:	41 51                	push   %r9
  402efd:	49 89 c9             	mov    %rcx,%r9
  402f00:	49 89 d0             	mov    %rdx,%r8
  402f03:	48 89 f9             	mov    %rdi,%rcx
  402f06:	48 89 f2             	mov    %rsi,%rdx
  402f09:	be 9a 3c 00 00       	mov    $0x3c9a,%esi
  402f0e:	bf f5 37 40 00       	mov    $0x4037f5,%edi
  402f13:	e8 28 f6 ff ff       	callq  402540 <submitr>
  402f18:	48 83 c4 10          	add    $0x10,%rsp
  402f1c:	eb 0e                	jmp    402f2c <driver_post+0x6f>
  402f1e:	66 c7 03 4f 4b       	movw   $0x4b4f,(%rbx)
  402f23:	c6 43 02 00          	movb   $0x0,0x2(%rbx)
  402f27:	b8 00 00 00 00       	mov    $0x0,%eax
  402f2c:	5b                   	pop    %rbx
  402f2d:	c3                   	retq   

0000000000402f2e <check>:
  402f2e:	89 f8                	mov    %edi,%eax
  402f30:	c1 e8 1c             	shr    $0x1c,%eax
  402f33:	85 c0                	test   %eax,%eax
  402f35:	74 1d                	je     402f54 <check+0x26>
  402f37:	b9 00 00 00 00       	mov    $0x0,%ecx
  402f3c:	eb 0b                	jmp    402f49 <check+0x1b>
  402f3e:	89 f8                	mov    %edi,%eax
  402f40:	d3 e8                	shr    %cl,%eax
  402f42:	3c 0a                	cmp    $0xa,%al
  402f44:	74 14                	je     402f5a <check+0x2c>
  402f46:	83 c1 08             	add    $0x8,%ecx
  402f49:	83 f9 1f             	cmp    $0x1f,%ecx
  402f4c:	7e f0                	jle    402f3e <check+0x10>
  402f4e:	b8 01 00 00 00       	mov    $0x1,%eax
  402f53:	c3                   	retq   
  402f54:	b8 00 00 00 00       	mov    $0x0,%eax
  402f59:	c3                   	retq   
  402f5a:	b8 00 00 00 00       	mov    $0x0,%eax
  402f5f:	c3                   	retq   

0000000000402f60 <gencookie>:
  402f60:	53                   	push   %rbx
  402f61:	83 c7 01             	add    $0x1,%edi
  402f64:	e8 47 dd ff ff       	callq  400cb0 <srandom@plt>
  402f69:	e8 72 de ff ff       	callq  400de0 <random@plt>
  402f6e:	89 c3                	mov    %eax,%ebx
  402f70:	89 c7                	mov    %eax,%edi
  402f72:	e8 b7 ff ff ff       	callq  402f2e <check>
  402f77:	85 c0                	test   %eax,%eax
  402f79:	74 ee                	je     402f69 <gencookie+0x9>
  402f7b:	89 d8                	mov    %ebx,%eax
  402f7d:	5b                   	pop    %rbx
  402f7e:	c3                   	retq   
  402f7f:	90                   	nop

0000000000402f80 <__libc_csu_init>:
  402f80:	41 57                	push   %r15
  402f82:	41 89 ff             	mov    %edi,%r15d
  402f85:	41 56                	push   %r14
  402f87:	49 89 f6             	mov    %rsi,%r14
  402f8a:	41 55                	push   %r13
  402f8c:	49 89 d5             	mov    %rdx,%r13
  402f8f:	41 54                	push   %r12
  402f91:	4c 8d 25 78 1e 20 00 	lea    0x201e78(%rip),%r12        # 604e10 <__frame_dummy_init_array_entry>
  402f98:	55                   	push   %rbp
  402f99:	48 8d 2d 78 1e 20 00 	lea    0x201e78(%rip),%rbp        # 604e18 <__init_array_end>
  402fa0:	53                   	push   %rbx
  402fa1:	4c 29 e5             	sub    %r12,%rbp
  402fa4:	31 db                	xor    %ebx,%ebx
  402fa6:	48 c1 fd 03          	sar    $0x3,%rbp
  402faa:	48 83 ec 08          	sub    $0x8,%rsp
  402fae:	e8 ad dc ff ff       	callq  400c60 <_init>
  402fb3:	48 85 ed             	test   %rbp,%rbp
  402fb6:	74 1e                	je     402fd6 <__libc_csu_init+0x56>
  402fb8:	0f 1f 84 00 00 00 00 	nopl   0x0(%rax,%rax,1)
  402fbf:	00 
  402fc0:	4c 89 ea             	mov    %r13,%rdx
  402fc3:	4c 89 f6             	mov    %r14,%rsi
  402fc6:	44 89 ff             	mov    %r15d,%edi
  402fc9:	41 ff 14 dc          	callq  *(%r12,%rbx,8)
  402fcd:	48 83 c3 01          	add    $0x1,%rbx
  402fd1:	48 39 eb             	cmp    %rbp,%rbx
  402fd4:	75 ea                	jne    402fc0 <__libc_csu_init+0x40>
  402fd6:	48 83 c4 08          	add    $0x8,%rsp
  402fda:	5b                   	pop    %rbx
  402fdb:	5d                   	pop    %rbp
  402fdc:	41 5c                	pop    %r12
  402fde:	41 5d                	pop    %r13
  402fe0:	41 5e                	pop    %r14
  402fe2:	41 5f                	pop    %r15
  402fe4:	c3                   	retq   
  402fe5:	66 66 2e 0f 1f 84 00 	data32 nopw %cs:0x0(%rax,%rax,1)
  402fec:	00 00 00 00 

0000000000402ff0 <__libc_csu_fini>:
  402ff0:	f3 c3                	repz retq 

Disassembly of section .fini:

0000000000402ff4 <_fini>:
  402ff4:	48 83 ec 08          	sub    $0x8,%rsp
  402ff8:	48 83 c4 08          	add    $0x8,%rsp
  402ffc:	c3                   	retq   
